; ModuleID = '/home/dhuff/Halide-HLS/apps/hls_examples/camera_ready_synthesis/app_files/big_apps_32_real/conv2d_b2b/conv2d_b2b/hls_target/.autopilot/db/a.o.bc'
target datalayout = "e-p:64:64:64-i1:8:8-i8:8:8-i16:16:16-i32:32:32-i64:64:64-f32:32:32-f64:64:64-v64:64:64-v128:128:128-a0:0:64-s0:64:64-f80:128:128-n8:16:32:64-S128"
target triple = "x86_64-unknown-linux-gnu"

%"struct.std::piecewise_construct_t" = type {}
%"class.std::locale::id" = type { i64 }
%"class.std::basic_istream" = type { i32 (...)**, i64, %"class.std::basic_ios" }
%"class.std::basic_ios" = type { %"class.std::ios_base", %"class.std::basic_ostream"*, i8, i1, %"class.std::basic_streambuf"*, %"class.std::ctype"*, %"class.std::num_put"*, %"class.std::num_get"* }
%"class.std::ios_base" = type { i32 (...)**, i64, i64, i17, i17, i17, %"struct.std::ios_base::_Callback_list"*, %"struct.std::ios_base::_Words", [8 x %"struct.std::ios_base::_Words"], i32, %"struct.std::ios_base::_Words"*, %"class.std::locale" }
%"struct.std::ios_base::_Callback_list" = type { %"struct.std::ios_base::_Callback_list"*, void (i2, %"class.std::ios_base"*, i32)*, i32, i32 }
%"struct.std::ios_base::_Words" = type { i8*, i64 }
%"class.std::locale" = type { %"class.std::locale::_Impl"* }
%"class.std::locale::_Impl" = type { i32, %"class.std::locale::facet"**, i64, %"class.std::locale::facet"**, i8** }
%"class.std::locale::facet" = type { i32 (...)**, i32 }
%"class.std::basic_ostream" = type { i32 (...)**, %"class.std::basic_ios" }
%"class.std::basic_streambuf" = type { i32 (...)**, i8*, i8*, i8*, i8*, i8*, i8*, %"class.std::locale" }
%"class.std::ctype" = type { %"class.std::locale::facet", %struct.__locale_struct*, i1, i32*, i32*, i16*, i8, [256 x i8], [256 x i8], i8 }
%struct.__locale_struct = type { [13 x %"struct.std::piecewise_construct_t"*], i16*, i32*, i32*, [13 x i8*] }
%"class.std::num_put" = type { %"class.std::locale::facet" }
%"class.std::num_get" = type { %"class.std::locale::facet" }
%"class.std::basic_istream.17" = type { i32 (...)**, i64, %"class.std::basic_ios.19" }
%"class.std::basic_ios.19" = type { %"class.std::ios_base", %"class.std::basic_ostream.20"*, i32, i1, %"class.std::basic_streambuf.21"*, %"class.std::ctype.22"*, %"class.std::num_put.23"*, %"class.std::num_get.24"* }
%"class.std::basic_ostream.20" = type { i32 (...)**, %"class.std::basic_ios.19" }
%"class.std::basic_streambuf.21" = type { i32 (...)**, i32*, i32*, i32*, i32*, i32*, i32*, %"class.std::locale" }
%"class.std::ctype.22" = type { %"class.std::__ctype_abstract_base", %struct.__locale_struct*, i1, [128 x i8], [256 x i32], [16 x i16], [16 x i64] }
%"class.std::__ctype_abstract_base" = type { %"class.std::locale::facet" }
%"class.std::num_put.23" = type { %"class.std::locale::facet" }
%"class.std::num_get.24" = type { %"class.std::locale::facet" }
%"class.hls::stream" = type { %struct.AxiPackedStencil }
%struct.AxiPackedStencil = type { %struct.ap_uint, %struct.ap_uint.0 }
%struct.ap_uint = type { %struct.ap_int_base }
%struct.ap_int_base = type { %struct.ssdm_int }
%struct.ssdm_int = type { i32 }
%struct.ap_uint.0 = type { %struct.ap_int_base.1 }
%struct.ap_int_base.1 = type { %struct.ssdm_int.2 }
%struct.ssdm_int.2 = type { i1 }
%"class.hls::stream.3" = type { %struct.PackedStencil }
%struct.PackedStencil = type { %struct.ap_uint.4 }
%struct.ap_uint.4 = type { %struct.ap_int_base.5 }
%struct.ap_int_base.5 = type { %struct.ssdm_int.6 }
%struct.ssdm_int.6 = type { i288 }
%"class.hls::stream.7" = type { %struct.PackedStencil.8 }
%struct.PackedStencil.8 = type { %struct.ap_uint }
%struct.Stencil = type { [1 x [1 x [3 x [3 x i32]]]] }
%struct.Stencil.9 = type { [1 x [1 x [1 x [1 x i32]]]] }
%"class.hls::stream.10" = type { %struct.PackedStencil.11 }
%struct.PackedStencil.11 = type { %struct.ap_uint.12 }
%struct.ap_uint.12 = type { %struct.ap_int_base.13 }
%struct.ap_int_base.13 = type { %struct.ssdm_int.14 }
%struct.ssdm_int.14 = type { i128 }
%struct.Stencil.15 = type { [1 x [1 x [2 x [2 x i32]]]] }
%struct.ap_range_ref.34 = type { %struct.ap_int_base.5*, i32, i32 }
%struct.ap_range_ref = type { %struct.ap_int_base*, i32, i32 }
%struct.ap_range_ref.27 = type { %struct.ap_int_base.13*, i32, i32 }
%struct.PackedStencil.28 = type { %struct.ap_uint.29 }
%struct.ap_uint.29 = type { %struct.ap_int_base.30 }
%struct.ap_int_base.30 = type { %"class.std::locale::id" }
%"class.hls::stream.32" = type { %struct.PackedStencil.28 }
%struct.ap_range_ref.33 = type { %struct.ap_int_base.30*, i32, i32 }
%struct.PackedStencil.36 = type { %struct.ap_uint.37 }
%struct.ap_uint.37 = type { %struct.ap_int_base.38 }
%struct.ap_int_base.38 = type { %struct.ssdm_int.39 }
%struct.ssdm_int.39 = type { i96 }
%"class.hls::stream.40" = type { %struct.PackedStencil.36 }
%struct.ap_range_ref.41 = type { %struct.ap_int_base.38*, i32, i32 }

@_ZStL19piecewise_construct = internal constant %"struct.std::piecewise_construct_t" zeroinitializer, align 1 ; [#uses=0 type=%"struct.std::piecewise_construct_t"*]
@_ZStL13allocator_arg = internal constant %"struct.std::piecewise_construct_t" zeroinitializer, align 1 ; [#uses=0 type=%"struct.std::piecewise_construct_t"*]
@_ZStL8__ioinit = internal global %"struct.std::piecewise_construct_t" zeroinitializer, align 1 ; [#uses=2 type=%"struct.std::piecewise_construct_t"*]
@.str = private unnamed_addr constant [1 x i8] zeroinitializer, align 1 ; [#uses=1 type=[1 x i8]*]
@.str1 = private unnamed_addr constant [6 x i8] c"ap_hs\00", align 1 ; [#uses=1 type=[6 x i8]*]
@.str2 = private unnamed_addr constant [9 x i8] c"FIFO_SRL\00", align 1 ; [#uses=1 type=[9 x i8]*]
@.str3 = private unnamed_addr constant [12 x i8] c"hls_label_6\00", align 1 ; [#uses=1 type=[12 x i8]*]
@.str4 = private unnamed_addr constant [9 x i8] c"COMPLETE\00", align 1 ; [#uses=1 type=[9 x i8]*]
@.str5 = private unnamed_addr constant [12 x i8] c"hls_label_5\00", align 1 ; [#uses=1 type=[12 x i8]*]
@.str6 = private unnamed_addr constant [12 x i8] c"hls_label_4\00", align 1 ; [#uses=1 type=[12 x i8]*]
@_IO_2_1_stdin_ = external global %"struct.std::piecewise_construct_t" ; [#uses=0 type=%"struct.std::piecewise_construct_t"*]
@_IO_2_1_stdout_ = external global %"struct.std::piecewise_construct_t" ; [#uses=0 type=%"struct.std::piecewise_construct_t"*]
@_IO_2_1_stderr_ = external global %"struct.std::piecewise_construct_t" ; [#uses=0 type=%"struct.std::piecewise_construct_t"*]
@sys_nerr = external global i32                   ; [#uses=0 type=i32*]
@_sys_nerr = external global i32                  ; [#uses=0 type=i32*]
@signgam = external global i32                    ; [#uses=0 type=i32*]
@_ZN9__gnu_cxx24__numeric_traits_integer8__digitsE = external constant i32 ; [#uses=0 type=i32*]
@_ZN9__gnu_cxx25__numeric_traits_floating14__max_digits10E = external constant i32 ; [#uses=0 type=i32*]
@_ZN9__gnu_cxx25__numeric_traits_floating10__digits10E = external constant i32 ; [#uses=0 type=i32*]
@_ZN9__gnu_cxx25__numeric_traits_floating16__max_exponent10E = external constant i32 ; [#uses=0 type=i32*]
@__daylight = external global i32                 ; [#uses=0 type=i32*]
@daylight = external global i32                   ; [#uses=0 type=i32*]
@getdate_err = external global i32                ; [#uses=0 type=i32*]
@optarg = external global i8*                     ; [#uses=0 type=i8**]
@optind = external global i32                     ; [#uses=0 type=i32*]
@opterr = external global i32                     ; [#uses=0 type=i32*]
@optopt = external global i32                     ; [#uses=0 type=i32*]
@_ZSt7nothrow = external global %"struct.std::piecewise_construct_t" ; [#uses=0 type=%"struct.std::piecewise_construct_t"*]
@program_invocation_name = external global i8*    ; [#uses=0 type=i8**]
@program_invocation_short_name = external global i8* ; [#uses=0 type=i8**]
@_ZNSt6locale7_S_onceE = external global i32      ; [#uses=0 type=i32*]
@_ZNSt6locale5facet7_S_onceE = external global i32 ; [#uses=0 type=i32*]
@_ZNSt6locale2id11_S_refcountE = external global i32 ; [#uses=0 type=i32*]
@_ZNSt7collate2idE = external global %"class.std::locale::id" ; [#uses=0 type=%"class.std::locale::id"*]
@_ZNSt8ios_base4Init11_S_refcountE = external global i32 ; [#uses=0 type=i32*]
@_ZNSt5ctype2idE = external global %"class.std::locale::id" ; [#uses=0 type=%"class.std::locale::id"*]
@_ZNSt5ctypeIcE2idE = external global %"class.std::locale::id" ; [#uses=0 type=%"class.std::locale::id"*]
@_ZNSt5ctypeIwE2idE = external global %"class.std::locale::id" ; [#uses=0 type=%"class.std::locale::id"*]
@_ZNSt10__num_base12_S_atoms_outE = external global i8* ; [#uses=0 type=i8**]
@_ZNSt10__num_base11_S_atoms_inE = external global i8* ; [#uses=0 type=i8**]
@_ZNSt8numpunct2idE = external global %"class.std::locale::id" ; [#uses=0 type=%"class.std::locale::id"*]
@_ZNSt7num_get2idE = external global %"class.std::locale::id" ; [#uses=0 type=%"class.std::locale::id"*]
@_ZNSt7num_put2idE = external global %"class.std::locale::id" ; [#uses=0 type=%"class.std::locale::id"*]
@_ZSt3cin = external global %"class.std::basic_istream" ; [#uses=0 type=%"class.std::basic_istream"*]
@_ZSt4cout = external global %"class.std::basic_ostream" ; [#uses=0 type=%"class.std::basic_ostream"*]
@_ZSt4cerr = external global %"class.std::basic_ostream" ; [#uses=0 type=%"class.std::basic_ostream"*]
@_ZSt4clog = external global %"class.std::basic_ostream" ; [#uses=0 type=%"class.std::basic_ostream"*]
@_ZSt4wcin = external global %"class.std::basic_istream.17" ; [#uses=0 type=%"class.std::basic_istream.17"*]
@_ZSt5wcout = external global %"class.std::basic_ostream.20" ; [#uses=0 type=%"class.std::basic_ostream.20"*]
@_ZSt5wcerr = external global %"class.std::basic_ostream.20" ; [#uses=0 type=%"class.std::basic_ostream.20"*]
@_ZSt5wclog = external global %"class.std::basic_ostream.20" ; [#uses=0 type=%"class.std::basic_ostream.20"*]
@.str7 = private unnamed_addr constant [13 x i8] c"hls_label_26\00", align 1 ; [#uses=1 type=[13 x i8]*]
@.str8 = private unnamed_addr constant [13 x i8] c"hls_label_27\00", align 1 ; [#uses=1 type=[13 x i8]*]
@.str9 = private unnamed_addr constant [13 x i8] c"hls_label_28\00", align 1 ; [#uses=1 type=[13 x i8]*]
@.str10 = private unnamed_addr constant [13 x i8] c"hls_label_29\00", align 1 ; [#uses=1 type=[13 x i8]*]
@.str11 = private unnamed_addr constant [85 x i8] c"index_0 < EXTENT_0 && index_1 < EXTENT_1 && index_2 < EXTENT_2 && index_3 < EXTENT_3\00", align 1 ; [#uses=1 type=[85 x i8]*]
@.str12 = private unnamed_addr constant [29 x i8] c"../../../lib_files/Stencil.h\00", align 1 ; [#uses=1 type=[29 x i8]*]
@__PRETTY_FUNCTION__._ZN13PackedStencilIjLm1ELm1ELm1ELm1EEclEmmmm = private unnamed_addr constant [238 x i8] c"ap_range_ref<8 * sizeof(T) * EXTENT_3 * EXTENT_2 * EXTENT_1 * EXTENT_0, false> PackedStencil<unsigned int, 1, 1, 1, 1>::operator()(size_t, size_t, size_t, size_t) [T = unsigned int, EXTENT_0 = 1, EXTENT_1 = 1, EXTENT_2 = 1, EXTENT_3 = 1]\00", align 1 ; [#uses=1 type=[238 x i8]*]
@__PRETTY_FUNCTION__._ZN7StencilIjLm1ELm1ELm1ELm1EEclEmmmm = private unnamed_addr constant [156 x i8] c"T &Stencil<unsigned int, 1, 1, 1, 1>::operator()(size_t, size_t, size_t, size_t) [T = unsigned int, EXTENT_0 = 1, EXTENT_1 = 1, EXTENT_2 = 1, EXTENT_3 = 1]\00", align 1 ; [#uses=1 type=[156 x i8]*]
@.str13 = private unnamed_addr constant [13 x i8] c"hls_label_24\00", align 1 ; [#uses=1 type=[13 x i8]*]
@.str14 = private unnamed_addr constant [13 x i8] c"hls_label_23\00", align 1 ; [#uses=1 type=[13 x i8]*]
@.str15 = private unnamed_addr constant [13 x i8] c"hls_label_25\00", align 1 ; [#uses=1 type=[13 x i8]*]
@.str16 = private unnamed_addr constant [13 x i8] c"hls_label_22\00", align 1 ; [#uses=1 type=[13 x i8]*]
@__PRETTY_FUNCTION__._ZN13PackedStencilIiLm1ELm1ELm1ELm1EEclEmmmm = private unnamed_addr constant [220 x i8] c"ap_range_ref<8 * sizeof(T) * EXTENT_3 * EXTENT_2 * EXTENT_1 * EXTENT_0, false> PackedStencil<int, 1, 1, 1, 1>::operator()(size_t, size_t, size_t, size_t) [T = int, EXTENT_0 = 1, EXTENT_1 = 1, EXTENT_2 = 1, EXTENT_3 = 1]\00", align 1 ; [#uses=1 type=[220 x i8]*]
@__PRETTY_FUNCTION__._ZN7StencilIiLm2ELm2ELm1ELm1EEclEmmmm = private unnamed_addr constant [138 x i8] c"T &Stencil<int, 2, 2, 1, 1>::operator()(size_t, size_t, size_t, size_t) [T = int, EXTENT_0 = 2, EXTENT_1 = 2, EXTENT_2 = 1, EXTENT_3 = 1]\00", align 1 ; [#uses=1 type=[138 x i8]*]
@.str17 = private unnamed_addr constant [13 x i8] c"hls_label_19\00", align 1 ; [#uses=1 type=[13 x i8]*]
@.str18 = private unnamed_addr constant [13 x i8] c"hls_label_18\00", align 1 ; [#uses=1 type=[13 x i8]*]
@.str19 = private unnamed_addr constant [13 x i8] c"hls_label_21\00", align 1 ; [#uses=1 type=[13 x i8]*]
@.str20 = private unnamed_addr constant [13 x i8] c"hls_label_20\00", align 1 ; [#uses=1 type=[13 x i8]*]
@__PRETTY_FUNCTION__._ZN13PackedStencilIiLm2ELm2ELm1ELm1EEclEmmmm = private unnamed_addr constant [220 x i8] c"ap_range_ref<8 * sizeof(T) * EXTENT_3 * EXTENT_2 * EXTENT_1 * EXTENT_0, false> PackedStencil<int, 2, 2, 1, 1>::operator()(size_t, size_t, size_t, size_t) [T = int, EXTENT_0 = 2, EXTENT_1 = 2, EXTENT_2 = 1, EXTENT_3 = 1]\00", align 1 ; [#uses=1 type=[220 x i8]*]
@.str21 = private unnamed_addr constant [11 x i8] c"LB_4D_pass\00", align 1 ; [#uses=1 type=[11 x i8]*]
@.str22 = private unnamed_addr constant [11 x i8] c"LB_3D_pass\00", align 1 ; [#uses=1 type=[11 x i8]*]
@.str23 = private unnamed_addr constant [9 x i8] c"LB2D_buf\00", align 1 ; [#uses=1 type=[9 x i8]*]
@.str24 = private unnamed_addr constant [13 x i8] c"hls_label_17\00", align 1 ; [#uses=1 type=[13 x i8]*]
@.str25 = private unnamed_addr constant [11 x i8] c"LB2D_shift\00", align 1 ; [#uses=1 type=[11 x i8]*]
@.str26 = private unnamed_addr constant [14 x i8] c"LB1D_shiftreg\00", align 1 ; [#uses=1 type=[14 x i8]*]
@__PRETTY_FUNCTION__._ZN13PackedStencilIiLm1ELm2ELm1ELm1EEclEmmmm = private unnamed_addr constant [220 x i8] c"ap_range_ref<8 * sizeof(T) * EXTENT_3 * EXTENT_2 * EXTENT_1 * EXTENT_0, false> PackedStencil<int, 1, 2, 1, 1>::operator()(size_t, size_t, size_t, size_t) [T = int, EXTENT_0 = 1, EXTENT_1 = 2, EXTENT_2 = 1, EXTENT_3 = 1]\00", align 1 ; [#uses=1 type=[220 x i8]*]
@.str27 = private unnamed_addr constant [13 x i8] c"hls_label_14\00", align 1 ; [#uses=1 type=[13 x i8]*]
@.str28 = private unnamed_addr constant [13 x i8] c"hls_label_13\00", align 1 ; [#uses=1 type=[13 x i8]*]
@.str29 = private unnamed_addr constant [13 x i8] c"hls_label_15\00", align 1 ; [#uses=1 type=[13 x i8]*]
@.str30 = private unnamed_addr constant [13 x i8] c"hls_label_16\00", align 1 ; [#uses=1 type=[13 x i8]*]
@__PRETTY_FUNCTION__._ZN7StencilIjLm3ELm3ELm1ELm1EEclEmmmm = private unnamed_addr constant [156 x i8] c"T &Stencil<unsigned int, 3, 3, 1, 1>::operator()(size_t, size_t, size_t, size_t) [T = unsigned int, EXTENT_0 = 3, EXTENT_1 = 3, EXTENT_2 = 1, EXTENT_3 = 1]\00", align 1 ; [#uses=1 type=[156 x i8]*]
@__PRETTY_FUNCTION__._ZN7StencilIiLm1ELm1ELm1ELm1EEclEmmmm = private unnamed_addr constant [138 x i8] c"T &Stencil<int, 1, 1, 1, 1>::operator()(size_t, size_t, size_t, size_t) [T = int, EXTENT_0 = 1, EXTENT_1 = 1, EXTENT_2 = 1, EXTENT_3 = 1]\00", align 1 ; [#uses=1 type=[138 x i8]*]
@.str31 = private unnamed_addr constant [13 x i8] c"hls_label_11\00", align 1 ; [#uses=1 type=[13 x i8]*]
@.str32 = private unnamed_addr constant [12 x i8] c"hls_label_9\00", align 1 ; [#uses=1 type=[12 x i8]*]
@.str33 = private unnamed_addr constant [13 x i8] c"hls_label_10\00", align 1 ; [#uses=1 type=[13 x i8]*]
@.str34 = private unnamed_addr constant [13 x i8] c"hls_label_12\00", align 1 ; [#uses=1 type=[13 x i8]*]
@__PRETTY_FUNCTION__._ZN13PackedStencilIjLm3ELm3ELm1ELm1EEclEmmmm = private unnamed_addr constant [238 x i8] c"ap_range_ref<8 * sizeof(T) * EXTENT_3 * EXTENT_2 * EXTENT_1 * EXTENT_0, false> PackedStencil<unsigned int, 3, 3, 1, 1>::operator()(size_t, size_t, size_t, size_t) [T = unsigned int, EXTENT_0 = 3, EXTENT_1 = 3, EXTENT_2 = 1, EXTENT_3 = 1]\00", align 1 ; [#uses=1 type=[238 x i8]*]
@.str35 = private unnamed_addr constant [12 x i8] c"hls_label_7\00", align 1 ; [#uses=1 type=[12 x i8]*]
@.str36 = private unnamed_addr constant [12 x i8] c"hls_label_8\00", align 1 ; [#uses=1 type=[12 x i8]*]
@__PRETTY_FUNCTION__._ZN13PackedStencilIjLm1ELm3ELm1ELm1EEclEmmmm = private unnamed_addr constant [238 x i8] c"ap_range_ref<8 * sizeof(T) * EXTENT_3 * EXTENT_2 * EXTENT_1 * EXTENT_0, false> PackedStencil<unsigned int, 1, 3, 1, 1>::operator()(size_t, size_t, size_t, size_t) [T = unsigned int, EXTENT_0 = 1, EXTENT_1 = 3, EXTENT_2 = 1, EXTENT_3 = 1]\00", align 1 ; [#uses=1 type=[238 x i8]*]
@llvm.global_ctors = appending global [1 x { i32, void ()* }] [{ i32, void ()* } { i32 65535, void ()* @_GLOBAL__I_a }] ; [#uses=0 type=[1 x { i32, void ()* }]*]

; [#uses=1]
define internal void @__cxx_global_var_init() nounwind section ".text.startup" {
  call void @_ZNSt8ios_base4InitC1Ev(%"struct.std::piecewise_construct_t"* @_ZStL8__ioinit)
  %1 = call i32 @atexit(void ()* @__dtor__ZStL8__ioinit) ; [#uses=0 type=i32]
  ret void
}

; [#uses=1]
declare void @_ZNSt8ios_base4InitC1Ev(%"struct.std::piecewise_construct_t"*)

; [#uses=1]
declare void @_ZNSt8ios_base4InitD1Ev(%"struct.std::piecewise_construct_t"*) nounwind

; [#uses=1]
define internal void @__dtor__ZStL8__ioinit() nounwind section ".text.startup" {
  call void @_ZNSt8ios_base4InitD1Ev(%"struct.std::piecewise_construct_t"* @_ZStL8__ioinit)
  ret void
}

; [#uses=1]
declare i32 @atexit(void ()*) nounwind

; [#uses=0]
define void @_Z10hls_targetRN3hls6streamI16AxiPackedStencilIjLm1ELm1ELm1ELm1EEEES4_(%"class.hls::stream"* %hw_input, %"class.hls::stream"* %hw_output) nounwind uwtable {
  %1 = alloca %"class.hls::stream"*, align 8      ; [#uses=3 type=%"class.hls::stream"**]
  %2 = alloca %"class.hls::stream"*, align 8      ; [#uses=3 type=%"class.hls::stream"**]
  %_hw_input_stencil_update_stream = alloca %"class.hls::stream"*, align 8 ; [#uses=2 type=%"class.hls::stream"**]
  %_hw_output_stencil_stream = alloca %"class.hls::stream"*, align 8 ; [#uses=2 type=%"class.hls::stream"**]
  %_p2_kernela0 = alloca [9 x i32], align 16      ; [#uses=27 type=[9 x i32]*]
  %_p2_kernel1a1 = alloca [4 x i32], align 16     ; [#uses=12 type=[4 x i32]*]
  %_hw_input_stencil_stream = alloca %"class.hls::stream.3", align 8 ; [#uses=5 type=%"class.hls::stream.3"*]
  %_hw_input_stencil_stream_to_mul = alloca %"class.hls::stream.3"*, align 8 ; [#uses=2 type=%"class.hls::stream.3"**]
  %_mul_stencil_update_stream = alloca %"class.hls::stream.7", align 4 ; [#uses=5 type=%"class.hls::stream.7"*]
  %_mul_y___scan_dim_1 = alloca i32, align 4      ; [#uses=4 type=i32*]
  %_mul_x___scan_dim_0 = alloca i32, align 4      ; [#uses=4 type=i32*]
  %_hw_input_stencil = alloca %struct.Stencil, align 4 ; [#uses=12 type=%struct.Stencil*]
  %3 = alloca %struct.Stencil, align 4            ; [#uses=3 type=%struct.Stencil*]
  %4 = alloca %struct.PackedStencil, align 8      ; [#uses=2 type=%struct.PackedStencil*]
  %_mul_stencil = alloca %struct.Stencil.9, align 4 ; [#uses=21 type=%struct.Stencil.9*]
  %_326 = alloca i32, align 4                     ; [#uses=2 type=i32*]
  %_327 = alloca i32, align 4                     ; [#uses=2 type=i32*]
  %_328 = alloca i32, align 4                     ; [#uses=2 type=i32*]
  %_329 = alloca i32, align 4                     ; [#uses=2 type=i32*]
  %_330 = alloca i32, align 4                     ; [#uses=2 type=i32*]
  %_331 = alloca i32, align 4                     ; [#uses=2 type=i32*]
  %_332 = alloca i32, align 4                     ; [#uses=2 type=i32*]
  %_333 = alloca i32, align 4                     ; [#uses=2 type=i32*]
  %_334 = alloca i32, align 4                     ; [#uses=2 type=i32*]
  %_335 = alloca i32, align 4                     ; [#uses=2 type=i32*]
  %_336 = alloca i32, align 4                     ; [#uses=2 type=i32*]
  %_337 = alloca i32, align 4                     ; [#uses=2 type=i32*]
  %_338 = alloca i32, align 4                     ; [#uses=2 type=i32*]
  %_339 = alloca i32, align 4                     ; [#uses=2 type=i32*]
  %_340 = alloca i32, align 4                     ; [#uses=2 type=i32*]
  %_341 = alloca i32, align 4                     ; [#uses=2 type=i32*]
  %_342 = alloca i32, align 4                     ; [#uses=2 type=i32*]
  %_343 = alloca i32, align 4                     ; [#uses=2 type=i32*]
  %_344 = alloca i32, align 4                     ; [#uses=2 type=i32*]
  %_345 = alloca i32, align 4                     ; [#uses=2 type=i32*]
  %_346 = alloca i32, align 4                     ; [#uses=2 type=i32*]
  %_347 = alloca i32, align 4                     ; [#uses=2 type=i32*]
  %_348 = alloca i32, align 4                     ; [#uses=2 type=i32*]
  %_349 = alloca i32, align 4                     ; [#uses=2 type=i32*]
  %_350 = alloca i32, align 4                     ; [#uses=2 type=i32*]
  %_351 = alloca i32, align 4                     ; [#uses=2 type=i32*]
  %_352 = alloca i32, align 4                     ; [#uses=2 type=i32*]
  %_353 = alloca i32, align 4                     ; [#uses=2 type=i32*]
  %_354 = alloca i32, align 4                     ; [#uses=2 type=i32*]
  %_355 = alloca i32, align 4                     ; [#uses=2 type=i32*]
  %_356 = alloca i32, align 4                     ; [#uses=2 type=i32*]
  %_357 = alloca i32, align 4                     ; [#uses=2 type=i32*]
  %_358 = alloca i32, align 4                     ; [#uses=2 type=i32*]
  %_359 = alloca i32, align 4                     ; [#uses=2 type=i32*]
  %_360 = alloca i32, align 4                     ; [#uses=2 type=i32*]
  %_361 = alloca i32, align 4                     ; [#uses=2 type=i32*]
  %_362 = alloca i32, align 4                     ; [#uses=2 type=i32*]
  %_363 = alloca i32, align 4                     ; [#uses=2 type=i32*]
  %_364 = alloca i32, align 4                     ; [#uses=2 type=i32*]
  %_365 = alloca i32, align 4                     ; [#uses=2 type=i32*]
  %_366 = alloca i32, align 4                     ; [#uses=2 type=i32*]
  %_367 = alloca i32, align 4                     ; [#uses=2 type=i32*]
  %_368 = alloca i32, align 4                     ; [#uses=2 type=i32*]
  %_369 = alloca i32, align 4                     ; [#uses=2 type=i32*]
  %_370 = alloca i32, align 4                     ; [#uses=2 type=i32*]
  %_371 = alloca i32, align 4                     ; [#uses=2 type=i32*]
  %_372 = alloca i32, align 4                     ; [#uses=2 type=i32*]
  %_373 = alloca i32, align 4                     ; [#uses=2 type=i32*]
  %_374 = alloca i32, align 4                     ; [#uses=2 type=i32*]
  %_375 = alloca i32, align 4                     ; [#uses=2 type=i32*]
  %_376 = alloca i32, align 4                     ; [#uses=2 type=i32*]
  %_377 = alloca i32, align 4                     ; [#uses=2 type=i32*]
  %_378 = alloca i32, align 4                     ; [#uses=2 type=i32*]
  %_379 = alloca i32, align 4                     ; [#uses=2 type=i32*]
  %5 = alloca %struct.PackedStencil.8, align 4    ; [#uses=2 type=%struct.PackedStencil.8*]
  %_mul_stencil_stream = alloca %"class.hls::stream.10", align 16 ; [#uses=5 type=%"class.hls::stream.10"*]
  %_mul_stencil_stream_to_p2_mul1 = alloca %"class.hls::stream.10"*, align 8 ; [#uses=2 type=%"class.hls::stream.10"**]
  %_p2_mul1_stencil_stream = alloca %"class.hls::stream.7", align 4 ; [#uses=5 type=%"class.hls::stream.7"*]
  %_p2_mul1_y___scan_dim_1 = alloca i32, align 4  ; [#uses=4 type=i32*]
  %_p2_mul1_x___scan_dim_0 = alloca i32, align 4  ; [#uses=4 type=i32*]
  %_mul_stencil1 = alloca %struct.Stencil.15, align 4 ; [#uses=7 type=%struct.Stencil.15*]
  %6 = alloca %struct.Stencil.15, align 4         ; [#uses=3 type=%struct.Stencil.15*]
  %7 = alloca %struct.PackedStencil.11, align 16  ; [#uses=2 type=%struct.PackedStencil.11*]
  %_p2_mul1_stencil = alloca %struct.Stencil.9, align 4 ; [#uses=11 type=%struct.Stencil.9*]
  %_380 = alloca i32, align 4                     ; [#uses=2 type=i32*]
  %_381 = alloca i32, align 4                     ; [#uses=2 type=i32*]
  %_382 = alloca float, align 4                   ; [#uses=2 type=float*]
  %_383 = alloca double, align 8                  ; [#uses=2 type=double*]
  %_384 = alloca double, align 8                  ; [#uses=2 type=double*]
  %_385 = alloca i32, align 4                     ; [#uses=2 type=i32*]
  %_386 = alloca i32, align 4                     ; [#uses=2 type=i32*]
  %_387 = alloca i32, align 4                     ; [#uses=2 type=i32*]
  %_388 = alloca i32, align 4                     ; [#uses=2 type=i32*]
  %_389 = alloca i32, align 4                     ; [#uses=2 type=i32*]
  %_390 = alloca i32, align 4                     ; [#uses=2 type=i32*]
  %_391 = alloca float, align 4                   ; [#uses=2 type=float*]
  %_392 = alloca double, align 8                  ; [#uses=2 type=double*]
  %_393 = alloca double, align 8                  ; [#uses=2 type=double*]
  %_394 = alloca i32, align 4                     ; [#uses=2 type=i32*]
  %_395 = alloca i32, align 4                     ; [#uses=2 type=i32*]
  %_396 = alloca i32, align 4                     ; [#uses=2 type=i32*]
  %_397 = alloca i32, align 4                     ; [#uses=2 type=i32*]
  %_398 = alloca i32, align 4                     ; [#uses=2 type=i32*]
  %_399 = alloca i32, align 4                     ; [#uses=2 type=i32*]
  %_400 = alloca float, align 4                   ; [#uses=2 type=float*]
  %_401 = alloca double, align 8                  ; [#uses=2 type=double*]
  %_402 = alloca double, align 8                  ; [#uses=2 type=double*]
  %_403 = alloca i32, align 4                     ; [#uses=2 type=i32*]
  %_404 = alloca i32, align 4                     ; [#uses=2 type=i32*]
  %_405 = alloca i32, align 4                     ; [#uses=2 type=i32*]
  %_406 = alloca i32, align 4                     ; [#uses=2 type=i32*]
  %_407 = alloca i32, align 4                     ; [#uses=2 type=i32*]
  %_408 = alloca i32, align 4                     ; [#uses=2 type=i32*]
  %_409 = alloca float, align 4                   ; [#uses=2 type=float*]
  %_410 = alloca double, align 8                  ; [#uses=2 type=double*]
  %_411 = alloca double, align 8                  ; [#uses=2 type=double*]
  %_412 = alloca i32, align 4                     ; [#uses=2 type=i32*]
  %_413 = alloca i32, align 4                     ; [#uses=2 type=i32*]
  %_414 = alloca i32, align 4                     ; [#uses=2 type=i32*]
  %_415 = alloca i32, align 4                     ; [#uses=2 type=i32*]
  %8 = alloca %struct.PackedStencil.8, align 4    ; [#uses=2 type=%struct.PackedStencil.8*]
  %_p2_mul1_stencil_stream_to_hw_output = alloca %"class.hls::stream.7"*, align 8 ; [#uses=2 type=%"class.hls::stream.7"**]
  %_hw_output_y___scan_dim_1 = alloca i32, align 4 ; [#uses=5 type=i32*]
  %_hw_output_x___scan_dim_0 = alloca i32, align 4 ; [#uses=5 type=i32*]
  %_p2_mul1_stencil2 = alloca %struct.Stencil.9, align 4 ; [#uses=4 type=%struct.Stencil.9*]
  %9 = alloca %struct.Stencil.9, align 4          ; [#uses=3 type=%struct.Stencil.9*]
  %10 = alloca %struct.PackedStencil.8, align 4   ; [#uses=2 type=%struct.PackedStencil.8*]
  %_hw_output_stencil = alloca %struct.Stencil.9, align 4 ; [#uses=3 type=%struct.Stencil.9*]
  %_416 = alloca i32, align 4                     ; [#uses=2 type=i32*]
  %_417 = alloca float, align 4                   ; [#uses=2 type=float*]
  %_418 = alloca double, align 8                  ; [#uses=2 type=double*]
  %_419 = alloca double, align 8                  ; [#uses=2 type=double*]
  %_420 = alloca i32, align 4                     ; [#uses=2 type=i32*]
  %_hw_output_stencil_packed = alloca %struct.AxiPackedStencil, align 4 ; [#uses=4 type=%struct.AxiPackedStencil*]
  %11 = alloca %struct.ap_uint.0, align 1         ; [#uses=2 type=%struct.ap_uint.0*]
  %12 = alloca %struct.ap_uint.0, align 1         ; [#uses=2 type=%struct.ap_uint.0*]
  store %"class.hls::stream"* %hw_input, %"class.hls::stream"** %1, align 8
  call void @llvm.dbg.declare(metadata !{%"class.hls::stream"** %1}, metadata !6785), !dbg !6786 ; [debug line = 6:49] [debug variable = hw_input]
  store %"class.hls::stream"* %hw_output, %"class.hls::stream"** %2, align 8
  call void @llvm.dbg.declare(metadata !{%"class.hls::stream"** %2}, metadata !6787), !dbg !6788 ; [debug line = 7:49] [debug variable = hw_output]
  call void (...)* @_ssdm_op_SpecDataflowPipeline(i32 -1, i8* getelementptr inbounds ([1 x i8]* @.str, i32 0, i32 0)) nounwind, !dbg !6789 ; [debug line = 9:1]
  call void (...)* @_ssdm_InlineRegion(i32 0, i8* getelementptr inbounds ([1 x i8]* @.str, i32 0, i32 0)) nounwind, !dbg !6791 ; [debug line = 10:1]
  %13 = load %"class.hls::stream"** %1, align 8, !dbg !6792 ; [#uses=1 type=%"class.hls::stream"*] [debug line = 11:1]
  call void (...)* @_ssdm_op_SpecInterface(%"class.hls::stream"* %13, i8* getelementptr inbounds ([6 x i8]* @.str1, i32 0, i32 0), i32 0, i32 0, i8* getelementptr inbounds ([1 x i8]* @.str, i32 0, i32 0), i32 0, i32 0, i8* getelementptr inbounds ([1 x i8]* @.str, i32 0, i32 0), i8* getelementptr inbounds ([1 x i8]* @.str, i32 0, i32 0), i8* getelementptr inbounds ([1 x i8]* @.str, i32 0, i32 0), i32 0, i32 0, i32 0, i32 0, i8* getelementptr inbounds ([1 x i8]* @.str, i32 0, i32 0), i8* getelementptr inbounds ([1 x i8]* @.str, i32 0, i32 0)) nounwind, !dbg !6792 ; [debug line = 11:1]
  %14 = load %"class.hls::stream"** %2, align 8, !dbg !6793 ; [#uses=1 type=%"class.hls::stream"*] [debug line = 12:1]
  call void (...)* @_ssdm_op_SpecInterface(%"class.hls::stream"* %14, i8* getelementptr inbounds ([6 x i8]* @.str1, i32 0, i32 0), i32 0, i32 0, i8* getelementptr inbounds ([1 x i8]* @.str, i32 0, i32 0), i32 0, i32 0, i8* getelementptr inbounds ([1 x i8]* @.str, i32 0, i32 0), i8* getelementptr inbounds ([1 x i8]* @.str, i32 0, i32 0), i8* getelementptr inbounds ([1 x i8]* @.str, i32 0, i32 0), i32 0, i32 0, i32 0, i32 0, i8* getelementptr inbounds ([1 x i8]* @.str, i32 0, i32 0), i8* getelementptr inbounds ([1 x i8]* @.str, i32 0, i32 0)) nounwind, !dbg !6793 ; [debug line = 12:1]
  call void @llvm.dbg.declare(metadata !{%"class.hls::stream"** %_hw_input_stencil_update_stream}, metadata !6794), !dbg !6795 ; [debug line = 15:50] [debug variable = _hw_input_stencil_update_stream]
  %15 = load %"class.hls::stream"** %1, align 8, !dbg !6796 ; [#uses=1 type=%"class.hls::stream"*] [debug line = 15:92]
  store %"class.hls::stream"* %15, %"class.hls::stream"** %_hw_input_stencil_update_stream, align 8, !dbg !6796 ; [debug line = 15:92]
  call void @llvm.dbg.declare(metadata !{%"class.hls::stream"** %_hw_output_stencil_stream}, metadata !6797), !dbg !6798 ; [debug line = 16:50] [debug variable = _hw_output_stencil_stream]
  %16 = load %"class.hls::stream"** %2, align 8, !dbg !6799 ; [#uses=1 type=%"class.hls::stream"*] [debug line = 16:87]
  store %"class.hls::stream"* %16, %"class.hls::stream"** %_hw_output_stencil_stream, align 8, !dbg !6799 ; [debug line = 16:87]
  call void @llvm.dbg.declare(metadata !{[9 x i32]* %_p2_kernela0}, metadata !6800), !dbg !6806 ; [debug line = 18:10] [debug variable = _p2_kernela0]
  %17 = getelementptr inbounds [9 x i32]* %_p2_kernela0, i32 0, i64 0, !dbg !6807 ; [#uses=1 type=i32*] [debug line = 20:2]
  store i32 0, i32* %17, align 4, !dbg !6807      ; [debug line = 20:2]
  %18 = getelementptr inbounds [9 x i32]* %_p2_kernela0, i32 0, i64 1, !dbg !6808 ; [#uses=1 type=i32*] [debug line = 21:2]
  store i32 0, i32* %18, align 4, !dbg !6808      ; [debug line = 21:2]
  %19 = getelementptr inbounds [9 x i32]* %_p2_kernela0, i32 0, i64 2, !dbg !6809 ; [#uses=1 type=i32*] [debug line = 22:2]
  store i32 0, i32* %19, align 4, !dbg !6809      ; [debug line = 22:2]
  %20 = getelementptr inbounds [9 x i32]* %_p2_kernela0, i32 0, i64 3, !dbg !6810 ; [#uses=1 type=i32*] [debug line = 23:2]
  store i32 0, i32* %20, align 4, !dbg !6810      ; [debug line = 23:2]
  %21 = getelementptr inbounds [9 x i32]* %_p2_kernela0, i32 0, i64 4, !dbg !6811 ; [#uses=1 type=i32*] [debug line = 24:2]
  store i32 0, i32* %21, align 4, !dbg !6811      ; [debug line = 24:2]
  %22 = getelementptr inbounds [9 x i32]* %_p2_kernela0, i32 0, i64 5, !dbg !6812 ; [#uses=1 type=i32*] [debug line = 25:2]
  store i32 0, i32* %22, align 4, !dbg !6812      ; [debug line = 25:2]
  %23 = getelementptr inbounds [9 x i32]* %_p2_kernela0, i32 0, i64 6, !dbg !6813 ; [#uses=1 type=i32*] [debug line = 26:2]
  store i32 0, i32* %23, align 4, !dbg !6813      ; [debug line = 26:2]
  %24 = getelementptr inbounds [9 x i32]* %_p2_kernela0, i32 0, i64 7, !dbg !6814 ; [#uses=1 type=i32*] [debug line = 27:2]
  store i32 0, i32* %24, align 4, !dbg !6814      ; [debug line = 27:2]
  %25 = getelementptr inbounds [9 x i32]* %_p2_kernela0, i32 0, i64 8, !dbg !6815 ; [#uses=1 type=i32*] [debug line = 28:2]
  store i32 0, i32* %25, align 4, !dbg !6815      ; [debug line = 28:2]
  %26 = getelementptr inbounds [9 x i32]* %_p2_kernela0, i32 0, i64 0, !dbg !6816 ; [#uses=1 type=i32*] [debug line = 29:2]
  store i32 1, i32* %26, align 4, !dbg !6816      ; [debug line = 29:2]
  %27 = getelementptr inbounds [9 x i32]* %_p2_kernela0, i32 0, i64 1, !dbg !6817 ; [#uses=1 type=i32*] [debug line = 30:2]
  store i32 2, i32* %27, align 4, !dbg !6817      ; [debug line = 30:2]
  %28 = getelementptr inbounds [9 x i32]* %_p2_kernela0, i32 0, i64 2, !dbg !6818 ; [#uses=1 type=i32*] [debug line = 31:2]
  store i32 1, i32* %28, align 4, !dbg !6818      ; [debug line = 31:2]
  %29 = getelementptr inbounds [9 x i32]* %_p2_kernela0, i32 0, i64 3, !dbg !6819 ; [#uses=1 type=i32*] [debug line = 32:2]
  store i32 2, i32* %29, align 4, !dbg !6819      ; [debug line = 32:2]
  %30 = getelementptr inbounds [9 x i32]* %_p2_kernela0, i32 0, i64 4, !dbg !6820 ; [#uses=1 type=i32*] [debug line = 33:2]
  store i32 4, i32* %30, align 4, !dbg !6820      ; [debug line = 33:2]
  %31 = getelementptr inbounds [9 x i32]* %_p2_kernela0, i32 0, i64 5, !dbg !6821 ; [#uses=1 type=i32*] [debug line = 34:2]
  store i32 2, i32* %31, align 4, !dbg !6821      ; [debug line = 34:2]
  %32 = getelementptr inbounds [9 x i32]* %_p2_kernela0, i32 0, i64 6, !dbg !6822 ; [#uses=1 type=i32*] [debug line = 35:2]
  store i32 1, i32* %32, align 4, !dbg !6822      ; [debug line = 35:2]
  %33 = getelementptr inbounds [9 x i32]* %_p2_kernela0, i32 0, i64 7, !dbg !6823 ; [#uses=1 type=i32*] [debug line = 36:2]
  store i32 2, i32* %33, align 4, !dbg !6823      ; [debug line = 36:2]
  %34 = getelementptr inbounds [9 x i32]* %_p2_kernela0, i32 0, i64 8, !dbg !6824 ; [#uses=1 type=i32*] [debug line = 37:2]
  store i32 1, i32* %34, align 4, !dbg !6824      ; [debug line = 37:2]
  call void @llvm.dbg.declare(metadata !{[4 x i32]* %_p2_kernel1a1}, metadata !6825), !dbg !6829 ; [debug line = 39:10] [debug variable = _p2_kernel1a1]
  %35 = getelementptr inbounds [4 x i32]* %_p2_kernel1a1, i32 0, i64 0, !dbg !6830 ; [#uses=1 type=i32*] [debug line = 41:2]
  store i32 0, i32* %35, align 4, !dbg !6830      ; [debug line = 41:2]
  %36 = getelementptr inbounds [4 x i32]* %_p2_kernel1a1, i32 0, i64 1, !dbg !6831 ; [#uses=1 type=i32*] [debug line = 42:2]
  store i32 0, i32* %36, align 4, !dbg !6831      ; [debug line = 42:2]
  %37 = getelementptr inbounds [4 x i32]* %_p2_kernel1a1, i32 0, i64 2, !dbg !6832 ; [#uses=1 type=i32*] [debug line = 43:2]
  store i32 0, i32* %37, align 4, !dbg !6832      ; [debug line = 43:2]
  %38 = getelementptr inbounds [4 x i32]* %_p2_kernel1a1, i32 0, i64 3, !dbg !6833 ; [#uses=1 type=i32*] [debug line = 44:2]
  store i32 0, i32* %38, align 4, !dbg !6833      ; [debug line = 44:2]
  %39 = getelementptr inbounds [4 x i32]* %_p2_kernel1a1, i32 0, i64 0, !dbg !6834 ; [#uses=1 type=i32*] [debug line = 45:2]
  store i32 1, i32* %39, align 4, !dbg !6834      ; [debug line = 45:2]
  %40 = getelementptr inbounds [4 x i32]* %_p2_kernel1a1, i32 0, i64 1, !dbg !6835 ; [#uses=1 type=i32*] [debug line = 46:2]
  store i32 4, i32* %40, align 4, !dbg !6835      ; [debug line = 46:2]
  %41 = getelementptr inbounds [4 x i32]* %_p2_kernel1a1, i32 0, i64 2, !dbg !6836 ; [#uses=1 type=i32*] [debug line = 47:2]
  store i32 2, i32* %41, align 4, !dbg !6836      ; [debug line = 47:2]
  %42 = getelementptr inbounds [4 x i32]* %_p2_kernel1a1, i32 0, i64 3, !dbg !6837 ; [#uses=1 type=i32*] [debug line = 48:2]
  store i32 1, i32* %42, align 4, !dbg !6837      ; [debug line = 48:2]
  call void @llvm.dbg.declare(metadata !{%"class.hls::stream.3"* %_hw_input_stencil_stream}, metadata !6838), !dbg !6839 ; [debug line = 50:46] [debug variable = _hw_input_stencil_stream]
  call void @_ZN3hls6streamI13PackedStencilIjLm3ELm3ELm1ELm1EEEC1Ev(%"class.hls::stream.3"* %_hw_input_stencil_stream), !dbg !6840 ; [debug line = 50:70]
  call void (...)* @_ssdm_SpecStream(%"class.hls::stream.3"* %_hw_input_stencil_stream, i32 0, i32 1, i8* getelementptr inbounds ([1 x i8]* @.str, i32 0, i32 0)) nounwind, !dbg !6841 ; [debug line = 51:1]
  call void (...)* @_ssdm_op_SpecResource(%"class.hls::stream.3"* %_hw_input_stencil_stream, i8* getelementptr inbounds ([1 x i8]* @.str, i32 0, i32 0), i8* getelementptr inbounds ([9 x i8]* @.str2, i32 0, i32 0), i8* getelementptr inbounds ([1 x i8]* @.str, i32 0, i32 0), i32 -1, i8* getelementptr inbounds ([1 x i8]* @.str, i32 0, i32 0), i8* getelementptr inbounds ([1 x i8]* @.str, i32 0, i32 0), i8* getelementptr inbounds ([1 x i8]* @.str, i32 0, i32 0), i8* getelementptr inbounds ([1 x i8]* @.str, i32 0, i32 0), i8* getelementptr inbounds ([1 x i8]* @.str, i32 0, i32 0)) nounwind, !dbg !6842 ; [debug line = 52:1]
  %43 = load %"class.hls::stream"** %_hw_input_stencil_update_stream, align 8, !dbg !6843 ; [#uses=1 type=%"class.hls::stream"*] [debug line = 54:2]
  call void @_Z10linebufferILm1920ELm1080ELm1ELm1ELm1ELm1ELm1ELm1ELm3ELm3ELm1ELm1EjEvRN3hls6streamI16AxiPackedStencilIT11_XT3_EXT4_EXT5_EXT6_EEEERNS1_I13PackedStencilIS3_XT7_EXT8_EXT9_EXT10_EEEE(%"class.hls::stream"* %43, %"class.hls::stream.3"* %_hw_input_stencil_stream), !dbg !6843 ; [debug line = 54:2]
  call void @llvm.dbg.declare(metadata !{%"class.hls::stream.3"** %_hw_input_stencil_stream_to_mul}, metadata !6844), !dbg !6845 ; [debug line = 57:47] [debug variable = _hw_input_stencil_stream_to_mul]
  store %"class.hls::stream.3"* %_hw_input_stencil_stream, %"class.hls::stream.3"** %_hw_input_stencil_stream_to_mul, align 8, !dbg !6846 ; [debug line = 57:105]
  call void @llvm.dbg.declare(metadata !{%"class.hls::stream.7"* %_mul_stencil_update_stream}, metadata !6847), !dbg !6848 ; [debug line = 59:45] [debug variable = _mul_stencil_update_stream]
  call void @_ZN3hls6streamI13PackedStencilIiLm1ELm1ELm1ELm1EEEC1Ev(%"class.hls::stream.7"* %_mul_stencil_update_stream), !dbg !6849 ; [debug line = 59:71]
  call void (...)* @_ssdm_SpecStream(%"class.hls::stream.7"* %_mul_stencil_update_stream, i32 0, i32 1, i8* getelementptr inbounds ([1 x i8]* @.str, i32 0, i32 0)) nounwind, !dbg !6850 ; [debug line = 60:1]
  call void (...)* @_ssdm_op_SpecResource(%"class.hls::stream.7"* %_mul_stencil_update_stream, i8* getelementptr inbounds ([1 x i8]* @.str, i32 0, i32 0), i8* getelementptr inbounds ([9 x i8]* @.str2, i32 0, i32 0), i8* getelementptr inbounds ([1 x i8]* @.str, i32 0, i32 0), i32 -1, i8* getelementptr inbounds ([1 x i8]* @.str, i32 0, i32 0), i8* getelementptr inbounds ([1 x i8]* @.str, i32 0, i32 0), i8* getelementptr inbounds ([1 x i8]* @.str, i32 0, i32 0), i8* getelementptr inbounds ([1 x i8]* @.str, i32 0, i32 0), i8* getelementptr inbounds ([1 x i8]* @.str, i32 0, i32 0)) nounwind, !dbg !6851 ; [debug line = 61:1]
  call void @llvm.dbg.declare(metadata !{i32* %_mul_y___scan_dim_1}, metadata !6852), !dbg !6854 ; [debug line = 64:11] [debug variable = _mul_y___scan_dim_1]
  store i32 0, i32* %_mul_y___scan_dim_1, align 4, !dbg !6855 ; [debug line = 64:34]
  br label %44, !dbg !6855                        ; [debug line = 64:34]

; <label>:44                                      ; preds = %238, %0
  %45 = load i32* %_mul_y___scan_dim_1, align 4, !dbg !6855 ; [#uses=1 type=i32] [debug line = 64:34]
  %46 = icmp slt i32 %45, 1078, !dbg !6855        ; [#uses=1 type=i1] [debug line = 64:34]
  br i1 %46, label %47, label %241, !dbg !6855    ; [debug line = 64:34]

; <label>:47                                      ; preds = %44
  call void @llvm.dbg.declare(metadata !{i32* %_mul_x___scan_dim_0}, metadata !6856), !dbg !6859 ; [debug line = 66:12] [debug variable = _mul_x___scan_dim_0]
  store i32 0, i32* %_mul_x___scan_dim_0, align 4, !dbg !6860 ; [debug line = 66:35]
  br label %48, !dbg !6860                        ; [debug line = 66:35]

; <label>:48                                      ; preds = %234, %47
  %49 = load i32* %_mul_x___scan_dim_0, align 4, !dbg !6860 ; [#uses=1 type=i32] [debug line = 66:35]
  %50 = icmp slt i32 %49, 1918, !dbg !6860        ; [#uses=1 type=i1] [debug line = 66:35]
  br i1 %50, label %51, label %237, !dbg !6860    ; [debug line = 66:35]

; <label>:51                                      ; preds = %48
  call void (...)* @_ssdm_RegionBegin(i8* getelementptr inbounds ([12 x i8]* @.str3, i32 0, i32 0)) nounwind, !dbg !6861 ; [debug line = 67:4]
  call void (...)* @_ssdm_op_SpecPipeline(i32 1, i32 1, i32 1, i32 0, i8* getelementptr inbounds ([1 x i8]* @.str, i32 0, i32 0)) nounwind, !dbg !6863 ; [debug line = 68:1]
  call void @llvm.dbg.declare(metadata !{%struct.Stencil* %_hw_input_stencil}, metadata !6864), !dbg !6865 ; [debug line = 69:26] [debug variable = _hw_input_stencil]
  %52 = getelementptr inbounds %struct.Stencil* %_hw_input_stencil, i32 0, i32 0, !dbg !6866 ; [#uses=1 type=[1 x [1 x [3 x [3 x i32]]]]*] [debug line = 70:1]
  %53 = getelementptr inbounds [1 x [1 x [3 x [3 x i32]]]]* %52, i32 0, i32 0, !dbg !6866 ; [#uses=1 type=[1 x [3 x [3 x i32]]]*] [debug line = 70:1]
  call void (...)* @_ssdm_SpecArrayPartition([1 x [3 x [3 x i32]]]* %53, i32 0, i8* getelementptr inbounds ([9 x i8]* @.str4, i32 0, i32 0), i32 0, i8* getelementptr inbounds ([1 x i8]* @.str, i32 0, i32 0)) nounwind, !dbg !6866 ; [debug line = 70:1]
  %54 = load %"class.hls::stream.3"** %_hw_input_stencil_stream_to_mul, align 8, !dbg !6867 ; [#uses=1 type=%"class.hls::stream.3"*] [debug line = 72:22]
  call void @_ZN3hls6streamI13PackedStencilIjLm3ELm3ELm1ELm1EEE4readEv(%struct.PackedStencil* sret %4, %"class.hls::stream.3"* %54), !dbg !6867 ; [debug line = 72:22]
  call void @_ZN13PackedStencilIjLm3ELm3ELm1ELm1EEcv7StencilIjLm3ELm3ELm1ELm1EEEv(%struct.Stencil* sret %3, %struct.PackedStencil* %4), !dbg !6867 ; [debug line = 72:22]
  %55 = bitcast %struct.Stencil* %_hw_input_stencil to i8*, !dbg !6867 ; [#uses=0 type=i8*] [debug line = 72:22]
  %56 = bitcast %struct.Stencil* %3 to i8*, !dbg !6867 ; [#uses=0 type=i8*] [debug line = 72:22]
  %57 = getelementptr inbounds %struct.Stencil* %_hw_input_stencil, i32 0, i32 0, !dbg !6867 ; [#uses=1 type=[1 x [1 x [3 x [3 x i32]]]]*] [debug line = 72:22]
  %58 = getelementptr inbounds %struct.Stencil* %3, i32 0, i32 0, !dbg !6867 ; [#uses=1 type=[1 x [1 x [3 x [3 x i32]]]]*] [debug line = 72:22]
  %59 = getelementptr inbounds [1 x [1 x [3 x [3 x i32]]]]* %57, i32 0, i32 0, !dbg !6867 ; [#uses=1 type=[1 x [3 x [3 x i32]]]*] [debug line = 72:22]
  %60 = getelementptr inbounds [1 x [1 x [3 x [3 x i32]]]]* %58, i32 0, i32 0, !dbg !6867 ; [#uses=1 type=[1 x [3 x [3 x i32]]]*] [debug line = 72:22]
  %61 = getelementptr inbounds [1 x [3 x [3 x i32]]]* %59, i32 0, i32 0, !dbg !6867 ; [#uses=3 type=[3 x [3 x i32]]*] [debug line = 72:22]
  %62 = getelementptr inbounds [1 x [3 x [3 x i32]]]* %60, i32 0, i32 0, !dbg !6867 ; [#uses=3 type=[3 x [3 x i32]]*] [debug line = 72:22]
  %63 = getelementptr inbounds [3 x [3 x i32]]* %61, i32 0, i32 0, !dbg !6867 ; [#uses=3 type=[3 x i32]*] [debug line = 72:22]
  %64 = getelementptr inbounds [3 x [3 x i32]]* %62, i32 0, i32 0, !dbg !6867 ; [#uses=3 type=[3 x i32]*] [debug line = 72:22]
  %65 = getelementptr inbounds [3 x i32]* %63, i32 0, i32 0, !dbg !6867 ; [#uses=1 type=i32*] [debug line = 72:22]
  %66 = getelementptr inbounds [3 x i32]* %64, i32 0, i32 0, !dbg !6867 ; [#uses=1 type=i32*] [debug line = 72:22]
  %67 = load i32* %66, !dbg !6867                 ; [#uses=1 type=i32] [debug line = 72:22]
  store i32 %67, i32* %65, !dbg !6867             ; [debug line = 72:22]
  %68 = getelementptr inbounds [3 x i32]* %63, i32 0, i32 1, !dbg !6867 ; [#uses=1 type=i32*] [debug line = 72:22]
  %69 = getelementptr inbounds [3 x i32]* %64, i32 0, i32 1, !dbg !6867 ; [#uses=1 type=i32*] [debug line = 72:22]
  %70 = load i32* %69, !dbg !6867                 ; [#uses=1 type=i32] [debug line = 72:22]
  store i32 %70, i32* %68, !dbg !6867             ; [debug line = 72:22]
  %71 = getelementptr inbounds [3 x i32]* %63, i32 0, i32 2, !dbg !6867 ; [#uses=1 type=i32*] [debug line = 72:22]
  %72 = getelementptr inbounds [3 x i32]* %64, i32 0, i32 2, !dbg !6867 ; [#uses=1 type=i32*] [debug line = 72:22]
  %73 = load i32* %72, !dbg !6867                 ; [#uses=1 type=i32] [debug line = 72:22]
  store i32 %73, i32* %71, !dbg !6867             ; [debug line = 72:22]
  %74 = getelementptr inbounds [3 x [3 x i32]]* %61, i32 0, i32 1, !dbg !6867 ; [#uses=3 type=[3 x i32]*] [debug line = 72:22]
  %75 = getelementptr inbounds [3 x [3 x i32]]* %62, i32 0, i32 1, !dbg !6867 ; [#uses=3 type=[3 x i32]*] [debug line = 72:22]
  %76 = getelementptr inbounds [3 x i32]* %74, i32 0, i32 0, !dbg !6867 ; [#uses=1 type=i32*] [debug line = 72:22]
  %77 = getelementptr inbounds [3 x i32]* %75, i32 0, i32 0, !dbg !6867 ; [#uses=1 type=i32*] [debug line = 72:22]
  %78 = load i32* %77, !dbg !6867                 ; [#uses=1 type=i32] [debug line = 72:22]
  store i32 %78, i32* %76, !dbg !6867             ; [debug line = 72:22]
  %79 = getelementptr inbounds [3 x i32]* %74, i32 0, i32 1, !dbg !6867 ; [#uses=1 type=i32*] [debug line = 72:22]
  %80 = getelementptr inbounds [3 x i32]* %75, i32 0, i32 1, !dbg !6867 ; [#uses=1 type=i32*] [debug line = 72:22]
  %81 = load i32* %80, !dbg !6867                 ; [#uses=1 type=i32] [debug line = 72:22]
  store i32 %81, i32* %79, !dbg !6867             ; [debug line = 72:22]
  %82 = getelementptr inbounds [3 x i32]* %74, i32 0, i32 2, !dbg !6867 ; [#uses=1 type=i32*] [debug line = 72:22]
  %83 = getelementptr inbounds [3 x i32]* %75, i32 0, i32 2, !dbg !6867 ; [#uses=1 type=i32*] [debug line = 72:22]
  %84 = load i32* %83, !dbg !6867                 ; [#uses=1 type=i32] [debug line = 72:22]
  store i32 %84, i32* %82, !dbg !6867             ; [debug line = 72:22]
  %85 = getelementptr inbounds [3 x [3 x i32]]* %61, i32 0, i32 2, !dbg !6867 ; [#uses=3 type=[3 x i32]*] [debug line = 72:22]
  %86 = getelementptr inbounds [3 x [3 x i32]]* %62, i32 0, i32 2, !dbg !6867 ; [#uses=3 type=[3 x i32]*] [debug line = 72:22]
  %87 = getelementptr inbounds [3 x i32]* %85, i32 0, i32 0, !dbg !6867 ; [#uses=1 type=i32*] [debug line = 72:22]
  %88 = getelementptr inbounds [3 x i32]* %86, i32 0, i32 0, !dbg !6867 ; [#uses=1 type=i32*] [debug line = 72:22]
  %89 = load i32* %88, !dbg !6867                 ; [#uses=1 type=i32] [debug line = 72:22]
  store i32 %89, i32* %87, !dbg !6867             ; [debug line = 72:22]
  %90 = getelementptr inbounds [3 x i32]* %85, i32 0, i32 1, !dbg !6867 ; [#uses=1 type=i32*] [debug line = 72:22]
  %91 = getelementptr inbounds [3 x i32]* %86, i32 0, i32 1, !dbg !6867 ; [#uses=1 type=i32*] [debug line = 72:22]
  %92 = load i32* %91, !dbg !6867                 ; [#uses=1 type=i32] [debug line = 72:22]
  store i32 %92, i32* %90, !dbg !6867             ; [debug line = 72:22]
  %93 = getelementptr inbounds [3 x i32]* %85, i32 0, i32 2, !dbg !6867 ; [#uses=1 type=i32*] [debug line = 72:22]
  %94 = getelementptr inbounds [3 x i32]* %86, i32 0, i32 2, !dbg !6867 ; [#uses=1 type=i32*] [debug line = 72:22]
  %95 = load i32* %94, !dbg !6867                 ; [#uses=1 type=i32] [debug line = 72:22]
  store i32 %95, i32* %93, !dbg !6867             ; [debug line = 72:22]
  call void @llvm.dbg.declare(metadata !{%struct.Stencil.9* %_mul_stencil}, metadata !6868), !dbg !6869 ; [debug line = 74:27] [debug variable = _mul_stencil]
  %96 = getelementptr inbounds %struct.Stencil.9* %_mul_stencil, i32 0, i32 0, !dbg !6870 ; [#uses=1 type=[1 x [1 x [1 x [1 x i32]]]]*] [debug line = 75:1]
  %97 = getelementptr inbounds [1 x [1 x [1 x [1 x i32]]]]* %96, i32 0, i32 0, !dbg !6870 ; [#uses=1 type=[1 x [1 x [1 x i32]]]*] [debug line = 75:1]
  call void (...)* @_ssdm_SpecArrayPartition([1 x [1 x [1 x i32]]]* %97, i32 0, i8* getelementptr inbounds ([9 x i8]* @.str4, i32 0, i32 0), i32 0, i8* getelementptr inbounds ([1 x i8]* @.str, i32 0, i32 0)) nounwind, !dbg !6870 ; [debug line = 75:1]
  %98 = call i32* @_ZN7StencilIiLm1ELm1ELm1ELm1EEclEmmmm(%struct.Stencil.9* %_mul_stencil, i64 0, i64 0, i64 0, i64 0), !dbg !6871 ; [#uses=1 type=i32*] [debug line = 77:2]
  store i32 0, i32* %98, !dbg !6871               ; [debug line = 77:2]
  call void @llvm.dbg.declare(metadata !{i32* %_326}, metadata !6872), !dbg !6873 ; [debug line = 78:12] [debug variable = _326]
  %99 = call i32* @_ZN7StencilIiLm1ELm1ELm1ELm1EEclEmmmm(%struct.Stencil.9* %_mul_stencil, i64 0, i64 0, i64 0, i64 0), !dbg !6874 ; [#uses=1 type=i32*] [debug line = 78:19]
  %100 = load i32* %99, !dbg !6874                ; [#uses=1 type=i32] [debug line = 78:19]
  store i32 %100, i32* %_326, align 4, !dbg !6874 ; [debug line = 78:19]
  call void @llvm.dbg.declare(metadata !{i32* %_327}, metadata !6875), !dbg !6876 ; [debug line = 79:13] [debug variable = _327]
  %101 = call i32* @_ZN7StencilIjLm3ELm3ELm1ELm1EEclEmmmm(%struct.Stencil* %_hw_input_stencil, i64 0, i64 0, i64 0, i64 0), !dbg !6877 ; [#uses=1 type=i32*] [debug line = 79:20]
  %102 = load i32* %101, !dbg !6877               ; [#uses=1 type=i32] [debug line = 79:20]
  store i32 %102, i32* %_327, align 4, !dbg !6877 ; [debug line = 79:20]
  call void @llvm.dbg.declare(metadata !{i32* %_328}, metadata !6878), !dbg !6879 ; [debug line = 80:12] [debug variable = _328]
  %103 = load i32* %_327, align 4, !dbg !6880     ; [#uses=1 type=i32] [debug line = 80:34]
  store i32 %103, i32* %_328, align 4, !dbg !6880 ; [debug line = 80:34]
  call void @llvm.dbg.declare(metadata !{i32* %_329}, metadata !6881), !dbg !6882 ; [debug line = 81:12] [debug variable = _329]
  %104 = getelementptr inbounds [9 x i32]* %_p2_kernela0, i32 0, i64 0, !dbg !6883 ; [#uses=1 type=i32*] [debug line = 81:34]
  %105 = load i32* %104, align 4, !dbg !6883      ; [#uses=1 type=i32] [debug line = 81:34]
  store i32 %105, i32* %_329, align 4, !dbg !6883 ; [debug line = 81:34]
  call void @llvm.dbg.declare(metadata !{i32* %_330}, metadata !6884), !dbg !6885 ; [debug line = 82:12] [debug variable = _330]
  %106 = load i32* %_328, align 4, !dbg !6886     ; [#uses=1 type=i32] [debug line = 82:30]
  %107 = load i32* %_329, align 4, !dbg !6886     ; [#uses=1 type=i32] [debug line = 82:30]
  %108 = mul nsw i32 %106, %107, !dbg !6886       ; [#uses=1 type=i32] [debug line = 82:30]
  store i32 %108, i32* %_330, align 4, !dbg !6886 ; [debug line = 82:30]
  call void @llvm.dbg.declare(metadata !{i32* %_331}, metadata !6887), !dbg !6888 ; [debug line = 83:12] [debug variable = _331]
  %109 = load i32* %_326, align 4, !dbg !6889     ; [#uses=1 type=i32] [debug line = 83:30]
  %110 = load i32* %_330, align 4, !dbg !6889     ; [#uses=1 type=i32] [debug line = 83:30]
  %111 = add nsw i32 %109, %110, !dbg !6889       ; [#uses=1 type=i32] [debug line = 83:30]
  store i32 %111, i32* %_331, align 4, !dbg !6889 ; [debug line = 83:30]
  %112 = load i32* %_331, align 4, !dbg !6890     ; [#uses=1 type=i32] [debug line = 84:4]
  %113 = call i32* @_ZN7StencilIiLm1ELm1ELm1ELm1EEclEmmmm(%struct.Stencil.9* %_mul_stencil, i64 0, i64 0, i64 0, i64 0), !dbg !6890 ; [#uses=1 type=i32*] [debug line = 84:4]
  store i32 %112, i32* %113, !dbg !6890           ; [debug line = 84:4]
  call void @llvm.dbg.declare(metadata !{i32* %_332}, metadata !6891), !dbg !6892 ; [debug line = 85:12] [debug variable = _332]
  %114 = call i32* @_ZN7StencilIiLm1ELm1ELm1ELm1EEclEmmmm(%struct.Stencil.9* %_mul_stencil, i64 0, i64 0, i64 0, i64 0), !dbg !6893 ; [#uses=1 type=i32*] [debug line = 85:19]
  %115 = load i32* %114, !dbg !6893               ; [#uses=1 type=i32] [debug line = 85:19]
  store i32 %115, i32* %_332, align 4, !dbg !6893 ; [debug line = 85:19]
  call void @llvm.dbg.declare(metadata !{i32* %_333}, metadata !6894), !dbg !6895 ; [debug line = 86:13] [debug variable = _333]
  %116 = call i32* @_ZN7StencilIjLm3ELm3ELm1ELm1EEclEmmmm(%struct.Stencil* %_hw_input_stencil, i64 1, i64 0, i64 0, i64 0), !dbg !6896 ; [#uses=1 type=i32*] [debug line = 86:20]
  %117 = load i32* %116, !dbg !6896               ; [#uses=1 type=i32] [debug line = 86:20]
  store i32 %117, i32* %_333, align 4, !dbg !6896 ; [debug line = 86:20]
  call void @llvm.dbg.declare(metadata !{i32* %_334}, metadata !6897), !dbg !6898 ; [debug line = 87:12] [debug variable = _334]
  %118 = load i32* %_333, align 4, !dbg !6899     ; [#uses=1 type=i32] [debug line = 87:34]
  store i32 %118, i32* %_334, align 4, !dbg !6899 ; [debug line = 87:34]
  call void @llvm.dbg.declare(metadata !{i32* %_335}, metadata !6900), !dbg !6901 ; [debug line = 88:12] [debug variable = _335]
  %119 = getelementptr inbounds [9 x i32]* %_p2_kernela0, i32 0, i64 1, !dbg !6902 ; [#uses=1 type=i32*] [debug line = 88:34]
  %120 = load i32* %119, align 4, !dbg !6902      ; [#uses=1 type=i32] [debug line = 88:34]
  store i32 %120, i32* %_335, align 4, !dbg !6902 ; [debug line = 88:34]
  call void @llvm.dbg.declare(metadata !{i32* %_336}, metadata !6903), !dbg !6904 ; [debug line = 89:12] [debug variable = _336]
  %121 = load i32* %_334, align 4, !dbg !6905     ; [#uses=1 type=i32] [debug line = 89:30]
  %122 = load i32* %_335, align 4, !dbg !6905     ; [#uses=1 type=i32] [debug line = 89:30]
  %123 = mul nsw i32 %121, %122, !dbg !6905       ; [#uses=1 type=i32] [debug line = 89:30]
  store i32 %123, i32* %_336, align 4, !dbg !6905 ; [debug line = 89:30]
  call void @llvm.dbg.declare(metadata !{i32* %_337}, metadata !6906), !dbg !6907 ; [debug line = 90:12] [debug variable = _337]
  %124 = load i32* %_332, align 4, !dbg !6908     ; [#uses=1 type=i32] [debug line = 90:30]
  %125 = load i32* %_336, align 4, !dbg !6908     ; [#uses=1 type=i32] [debug line = 90:30]
  %126 = add nsw i32 %124, %125, !dbg !6908       ; [#uses=1 type=i32] [debug line = 90:30]
  store i32 %126, i32* %_337, align 4, !dbg !6908 ; [debug line = 90:30]
  %127 = load i32* %_337, align 4, !dbg !6909     ; [#uses=1 type=i32] [debug line = 91:4]
  %128 = call i32* @_ZN7StencilIiLm1ELm1ELm1ELm1EEclEmmmm(%struct.Stencil.9* %_mul_stencil, i64 0, i64 0, i64 0, i64 0), !dbg !6909 ; [#uses=1 type=i32*] [debug line = 91:4]
  store i32 %127, i32* %128, !dbg !6909           ; [debug line = 91:4]
  call void @llvm.dbg.declare(metadata !{i32* %_338}, metadata !6910), !dbg !6911 ; [debug line = 92:12] [debug variable = _338]
  %129 = call i32* @_ZN7StencilIiLm1ELm1ELm1ELm1EEclEmmmm(%struct.Stencil.9* %_mul_stencil, i64 0, i64 0, i64 0, i64 0), !dbg !6912 ; [#uses=1 type=i32*] [debug line = 92:19]
  %130 = load i32* %129, !dbg !6912               ; [#uses=1 type=i32] [debug line = 92:19]
  store i32 %130, i32* %_338, align 4, !dbg !6912 ; [debug line = 92:19]
  call void @llvm.dbg.declare(metadata !{i32* %_339}, metadata !6913), !dbg !6914 ; [debug line = 93:13] [debug variable = _339]
  %131 = call i32* @_ZN7StencilIjLm3ELm3ELm1ELm1EEclEmmmm(%struct.Stencil* %_hw_input_stencil, i64 2, i64 0, i64 0, i64 0), !dbg !6915 ; [#uses=1 type=i32*] [debug line = 93:20]
  %132 = load i32* %131, !dbg !6915               ; [#uses=1 type=i32] [debug line = 93:20]
  store i32 %132, i32* %_339, align 4, !dbg !6915 ; [debug line = 93:20]
  call void @llvm.dbg.declare(metadata !{i32* %_340}, metadata !6916), !dbg !6917 ; [debug line = 94:12] [debug variable = _340]
  %133 = load i32* %_339, align 4, !dbg !6918     ; [#uses=1 type=i32] [debug line = 94:34]
  store i32 %133, i32* %_340, align 4, !dbg !6918 ; [debug line = 94:34]
  call void @llvm.dbg.declare(metadata !{i32* %_341}, metadata !6919), !dbg !6920 ; [debug line = 95:12] [debug variable = _341]
  %134 = getelementptr inbounds [9 x i32]* %_p2_kernela0, i32 0, i64 2, !dbg !6921 ; [#uses=1 type=i32*] [debug line = 95:34]
  %135 = load i32* %134, align 4, !dbg !6921      ; [#uses=1 type=i32] [debug line = 95:34]
  store i32 %135, i32* %_341, align 4, !dbg !6921 ; [debug line = 95:34]
  call void @llvm.dbg.declare(metadata !{i32* %_342}, metadata !6922), !dbg !6923 ; [debug line = 96:12] [debug variable = _342]
  %136 = load i32* %_340, align 4, !dbg !6924     ; [#uses=1 type=i32] [debug line = 96:30]
  %137 = load i32* %_341, align 4, !dbg !6924     ; [#uses=1 type=i32] [debug line = 96:30]
  %138 = mul nsw i32 %136, %137, !dbg !6924       ; [#uses=1 type=i32] [debug line = 96:30]
  store i32 %138, i32* %_342, align 4, !dbg !6924 ; [debug line = 96:30]
  call void @llvm.dbg.declare(metadata !{i32* %_343}, metadata !6925), !dbg !6926 ; [debug line = 97:12] [debug variable = _343]
  %139 = load i32* %_338, align 4, !dbg !6927     ; [#uses=1 type=i32] [debug line = 97:30]
  %140 = load i32* %_342, align 4, !dbg !6927     ; [#uses=1 type=i32] [debug line = 97:30]
  %141 = add nsw i32 %139, %140, !dbg !6927       ; [#uses=1 type=i32] [debug line = 97:30]
  store i32 %141, i32* %_343, align 4, !dbg !6927 ; [debug line = 97:30]
  %142 = load i32* %_343, align 4, !dbg !6928     ; [#uses=1 type=i32] [debug line = 98:4]
  %143 = call i32* @_ZN7StencilIiLm1ELm1ELm1ELm1EEclEmmmm(%struct.Stencil.9* %_mul_stencil, i64 0, i64 0, i64 0, i64 0), !dbg !6928 ; [#uses=1 type=i32*] [debug line = 98:4]
  store i32 %142, i32* %143, !dbg !6928           ; [debug line = 98:4]
  call void @llvm.dbg.declare(metadata !{i32* %_344}, metadata !6929), !dbg !6930 ; [debug line = 99:12] [debug variable = _344]
  %144 = call i32* @_ZN7StencilIiLm1ELm1ELm1ELm1EEclEmmmm(%struct.Stencil.9* %_mul_stencil, i64 0, i64 0, i64 0, i64 0), !dbg !6931 ; [#uses=1 type=i32*] [debug line = 99:19]
  %145 = load i32* %144, !dbg !6931               ; [#uses=1 type=i32] [debug line = 99:19]
  store i32 %145, i32* %_344, align 4, !dbg !6931 ; [debug line = 99:19]
  call void @llvm.dbg.declare(metadata !{i32* %_345}, metadata !6932), !dbg !6933 ; [debug line = 100:13] [debug variable = _345]
  %146 = call i32* @_ZN7StencilIjLm3ELm3ELm1ELm1EEclEmmmm(%struct.Stencil* %_hw_input_stencil, i64 0, i64 1, i64 0, i64 0), !dbg !6934 ; [#uses=1 type=i32*] [debug line = 100:20]
  %147 = load i32* %146, !dbg !6934               ; [#uses=1 type=i32] [debug line = 100:20]
  store i32 %147, i32* %_345, align 4, !dbg !6934 ; [debug line = 100:20]
  call void @llvm.dbg.declare(metadata !{i32* %_346}, metadata !6935), !dbg !6936 ; [debug line = 101:12] [debug variable = _346]
  %148 = load i32* %_345, align 4, !dbg !6937     ; [#uses=1 type=i32] [debug line = 101:34]
  store i32 %148, i32* %_346, align 4, !dbg !6937 ; [debug line = 101:34]
  call void @llvm.dbg.declare(metadata !{i32* %_347}, metadata !6938), !dbg !6939 ; [debug line = 102:12] [debug variable = _347]
  %149 = getelementptr inbounds [9 x i32]* %_p2_kernela0, i32 0, i64 3, !dbg !6940 ; [#uses=1 type=i32*] [debug line = 102:34]
  %150 = load i32* %149, align 4, !dbg !6940      ; [#uses=1 type=i32] [debug line = 102:34]
  store i32 %150, i32* %_347, align 4, !dbg !6940 ; [debug line = 102:34]
  call void @llvm.dbg.declare(metadata !{i32* %_348}, metadata !6941), !dbg !6942 ; [debug line = 103:12] [debug variable = _348]
  %151 = load i32* %_346, align 4, !dbg !6943     ; [#uses=1 type=i32] [debug line = 103:30]
  %152 = load i32* %_347, align 4, !dbg !6943     ; [#uses=1 type=i32] [debug line = 103:30]
  %153 = mul nsw i32 %151, %152, !dbg !6943       ; [#uses=1 type=i32] [debug line = 103:30]
  store i32 %153, i32* %_348, align 4, !dbg !6943 ; [debug line = 103:30]
  call void @llvm.dbg.declare(metadata !{i32* %_349}, metadata !6944), !dbg !6945 ; [debug line = 104:12] [debug variable = _349]
  %154 = load i32* %_344, align 4, !dbg !6946     ; [#uses=1 type=i32] [debug line = 104:30]
  %155 = load i32* %_348, align 4, !dbg !6946     ; [#uses=1 type=i32] [debug line = 104:30]
  %156 = add nsw i32 %154, %155, !dbg !6946       ; [#uses=1 type=i32] [debug line = 104:30]
  store i32 %156, i32* %_349, align 4, !dbg !6946 ; [debug line = 104:30]
  %157 = load i32* %_349, align 4, !dbg !6947     ; [#uses=1 type=i32] [debug line = 105:4]
  %158 = call i32* @_ZN7StencilIiLm1ELm1ELm1ELm1EEclEmmmm(%struct.Stencil.9* %_mul_stencil, i64 0, i64 0, i64 0, i64 0), !dbg !6947 ; [#uses=1 type=i32*] [debug line = 105:4]
  store i32 %157, i32* %158, !dbg !6947           ; [debug line = 105:4]
  call void @llvm.dbg.declare(metadata !{i32* %_350}, metadata !6948), !dbg !6949 ; [debug line = 106:12] [debug variable = _350]
  %159 = call i32* @_ZN7StencilIiLm1ELm1ELm1ELm1EEclEmmmm(%struct.Stencil.9* %_mul_stencil, i64 0, i64 0, i64 0, i64 0), !dbg !6950 ; [#uses=1 type=i32*] [debug line = 106:19]
  %160 = load i32* %159, !dbg !6950               ; [#uses=1 type=i32] [debug line = 106:19]
  store i32 %160, i32* %_350, align 4, !dbg !6950 ; [debug line = 106:19]
  call void @llvm.dbg.declare(metadata !{i32* %_351}, metadata !6951), !dbg !6952 ; [debug line = 107:13] [debug variable = _351]
  %161 = call i32* @_ZN7StencilIjLm3ELm3ELm1ELm1EEclEmmmm(%struct.Stencil* %_hw_input_stencil, i64 1, i64 1, i64 0, i64 0), !dbg !6953 ; [#uses=1 type=i32*] [debug line = 107:20]
  %162 = load i32* %161, !dbg !6953               ; [#uses=1 type=i32] [debug line = 107:20]
  store i32 %162, i32* %_351, align 4, !dbg !6953 ; [debug line = 107:20]
  call void @llvm.dbg.declare(metadata !{i32* %_352}, metadata !6954), !dbg !6955 ; [debug line = 108:12] [debug variable = _352]
  %163 = load i32* %_351, align 4, !dbg !6956     ; [#uses=1 type=i32] [debug line = 108:34]
  store i32 %163, i32* %_352, align 4, !dbg !6956 ; [debug line = 108:34]
  call void @llvm.dbg.declare(metadata !{i32* %_353}, metadata !6957), !dbg !6958 ; [debug line = 109:12] [debug variable = _353]
  %164 = getelementptr inbounds [9 x i32]* %_p2_kernela0, i32 0, i64 4, !dbg !6959 ; [#uses=1 type=i32*] [debug line = 109:34]
  %165 = load i32* %164, align 4, !dbg !6959      ; [#uses=1 type=i32] [debug line = 109:34]
  store i32 %165, i32* %_353, align 4, !dbg !6959 ; [debug line = 109:34]
  call void @llvm.dbg.declare(metadata !{i32* %_354}, metadata !6960), !dbg !6961 ; [debug line = 110:12] [debug variable = _354]
  %166 = load i32* %_352, align 4, !dbg !6962     ; [#uses=1 type=i32] [debug line = 110:30]
  %167 = load i32* %_353, align 4, !dbg !6962     ; [#uses=1 type=i32] [debug line = 110:30]
  %168 = mul nsw i32 %166, %167, !dbg !6962       ; [#uses=1 type=i32] [debug line = 110:30]
  store i32 %168, i32* %_354, align 4, !dbg !6962 ; [debug line = 110:30]
  call void @llvm.dbg.declare(metadata !{i32* %_355}, metadata !6963), !dbg !6964 ; [debug line = 111:12] [debug variable = _355]
  %169 = load i32* %_350, align 4, !dbg !6965     ; [#uses=1 type=i32] [debug line = 111:30]
  %170 = load i32* %_354, align 4, !dbg !6965     ; [#uses=1 type=i32] [debug line = 111:30]
  %171 = add nsw i32 %169, %170, !dbg !6965       ; [#uses=1 type=i32] [debug line = 111:30]
  store i32 %171, i32* %_355, align 4, !dbg !6965 ; [debug line = 111:30]
  %172 = load i32* %_355, align 4, !dbg !6966     ; [#uses=1 type=i32] [debug line = 112:4]
  %173 = call i32* @_ZN7StencilIiLm1ELm1ELm1ELm1EEclEmmmm(%struct.Stencil.9* %_mul_stencil, i64 0, i64 0, i64 0, i64 0), !dbg !6966 ; [#uses=1 type=i32*] [debug line = 112:4]
  store i32 %172, i32* %173, !dbg !6966           ; [debug line = 112:4]
  call void @llvm.dbg.declare(metadata !{i32* %_356}, metadata !6967), !dbg !6968 ; [debug line = 113:12] [debug variable = _356]
  %174 = call i32* @_ZN7StencilIiLm1ELm1ELm1ELm1EEclEmmmm(%struct.Stencil.9* %_mul_stencil, i64 0, i64 0, i64 0, i64 0), !dbg !6969 ; [#uses=1 type=i32*] [debug line = 113:19]
  %175 = load i32* %174, !dbg !6969               ; [#uses=1 type=i32] [debug line = 113:19]
  store i32 %175, i32* %_356, align 4, !dbg !6969 ; [debug line = 113:19]
  call void @llvm.dbg.declare(metadata !{i32* %_357}, metadata !6970), !dbg !6971 ; [debug line = 114:13] [debug variable = _357]
  %176 = call i32* @_ZN7StencilIjLm3ELm3ELm1ELm1EEclEmmmm(%struct.Stencil* %_hw_input_stencil, i64 2, i64 1, i64 0, i64 0), !dbg !6972 ; [#uses=1 type=i32*] [debug line = 114:20]
  %177 = load i32* %176, !dbg !6972               ; [#uses=1 type=i32] [debug line = 114:20]
  store i32 %177, i32* %_357, align 4, !dbg !6972 ; [debug line = 114:20]
  call void @llvm.dbg.declare(metadata !{i32* %_358}, metadata !6973), !dbg !6974 ; [debug line = 115:12] [debug variable = _358]
  %178 = load i32* %_357, align 4, !dbg !6975     ; [#uses=1 type=i32] [debug line = 115:34]
  store i32 %178, i32* %_358, align 4, !dbg !6975 ; [debug line = 115:34]
  call void @llvm.dbg.declare(metadata !{i32* %_359}, metadata !6976), !dbg !6977 ; [debug line = 116:12] [debug variable = _359]
  %179 = getelementptr inbounds [9 x i32]* %_p2_kernela0, i32 0, i64 5, !dbg !6978 ; [#uses=1 type=i32*] [debug line = 116:34]
  %180 = load i32* %179, align 4, !dbg !6978      ; [#uses=1 type=i32] [debug line = 116:34]
  store i32 %180, i32* %_359, align 4, !dbg !6978 ; [debug line = 116:34]
  call void @llvm.dbg.declare(metadata !{i32* %_360}, metadata !6979), !dbg !6980 ; [debug line = 117:12] [debug variable = _360]
  %181 = load i32* %_358, align 4, !dbg !6981     ; [#uses=1 type=i32] [debug line = 117:30]
  %182 = load i32* %_359, align 4, !dbg !6981     ; [#uses=1 type=i32] [debug line = 117:30]
  %183 = mul nsw i32 %181, %182, !dbg !6981       ; [#uses=1 type=i32] [debug line = 117:30]
  store i32 %183, i32* %_360, align 4, !dbg !6981 ; [debug line = 117:30]
  call void @llvm.dbg.declare(metadata !{i32* %_361}, metadata !6982), !dbg !6983 ; [debug line = 118:12] [debug variable = _361]
  %184 = load i32* %_356, align 4, !dbg !6984     ; [#uses=1 type=i32] [debug line = 118:30]
  %185 = load i32* %_360, align 4, !dbg !6984     ; [#uses=1 type=i32] [debug line = 118:30]
  %186 = add nsw i32 %184, %185, !dbg !6984       ; [#uses=1 type=i32] [debug line = 118:30]
  store i32 %186, i32* %_361, align 4, !dbg !6984 ; [debug line = 118:30]
  %187 = load i32* %_361, align 4, !dbg !6985     ; [#uses=1 type=i32] [debug line = 119:4]
  %188 = call i32* @_ZN7StencilIiLm1ELm1ELm1ELm1EEclEmmmm(%struct.Stencil.9* %_mul_stencil, i64 0, i64 0, i64 0, i64 0), !dbg !6985 ; [#uses=1 type=i32*] [debug line = 119:4]
  store i32 %187, i32* %188, !dbg !6985           ; [debug line = 119:4]
  call void @llvm.dbg.declare(metadata !{i32* %_362}, metadata !6986), !dbg !6987 ; [debug line = 120:12] [debug variable = _362]
  %189 = call i32* @_ZN7StencilIiLm1ELm1ELm1ELm1EEclEmmmm(%struct.Stencil.9* %_mul_stencil, i64 0, i64 0, i64 0, i64 0), !dbg !6988 ; [#uses=1 type=i32*] [debug line = 120:19]
  %190 = load i32* %189, !dbg !6988               ; [#uses=1 type=i32] [debug line = 120:19]
  store i32 %190, i32* %_362, align 4, !dbg !6988 ; [debug line = 120:19]
  call void @llvm.dbg.declare(metadata !{i32* %_363}, metadata !6989), !dbg !6990 ; [debug line = 121:13] [debug variable = _363]
  %191 = call i32* @_ZN7StencilIjLm3ELm3ELm1ELm1EEclEmmmm(%struct.Stencil* %_hw_input_stencil, i64 0, i64 2, i64 0, i64 0), !dbg !6991 ; [#uses=1 type=i32*] [debug line = 121:20]
  %192 = load i32* %191, !dbg !6991               ; [#uses=1 type=i32] [debug line = 121:20]
  store i32 %192, i32* %_363, align 4, !dbg !6991 ; [debug line = 121:20]
  call void @llvm.dbg.declare(metadata !{i32* %_364}, metadata !6992), !dbg !6993 ; [debug line = 122:12] [debug variable = _364]
  %193 = load i32* %_363, align 4, !dbg !6994     ; [#uses=1 type=i32] [debug line = 122:34]
  store i32 %193, i32* %_364, align 4, !dbg !6994 ; [debug line = 122:34]
  call void @llvm.dbg.declare(metadata !{i32* %_365}, metadata !6995), !dbg !6996 ; [debug line = 123:12] [debug variable = _365]
  %194 = getelementptr inbounds [9 x i32]* %_p2_kernela0, i32 0, i64 6, !dbg !6997 ; [#uses=1 type=i32*] [debug line = 123:34]
  %195 = load i32* %194, align 4, !dbg !6997      ; [#uses=1 type=i32] [debug line = 123:34]
  store i32 %195, i32* %_365, align 4, !dbg !6997 ; [debug line = 123:34]
  call void @llvm.dbg.declare(metadata !{i32* %_366}, metadata !6998), !dbg !6999 ; [debug line = 124:12] [debug variable = _366]
  %196 = load i32* %_364, align 4, !dbg !7000     ; [#uses=1 type=i32] [debug line = 124:30]
  %197 = load i32* %_365, align 4, !dbg !7000     ; [#uses=1 type=i32] [debug line = 124:30]
  %198 = mul nsw i32 %196, %197, !dbg !7000       ; [#uses=1 type=i32] [debug line = 124:30]
  store i32 %198, i32* %_366, align 4, !dbg !7000 ; [debug line = 124:30]
  call void @llvm.dbg.declare(metadata !{i32* %_367}, metadata !7001), !dbg !7002 ; [debug line = 125:12] [debug variable = _367]
  %199 = load i32* %_362, align 4, !dbg !7003     ; [#uses=1 type=i32] [debug line = 125:30]
  %200 = load i32* %_366, align 4, !dbg !7003     ; [#uses=1 type=i32] [debug line = 125:30]
  %201 = add nsw i32 %199, %200, !dbg !7003       ; [#uses=1 type=i32] [debug line = 125:30]
  store i32 %201, i32* %_367, align 4, !dbg !7003 ; [debug line = 125:30]
  %202 = load i32* %_367, align 4, !dbg !7004     ; [#uses=1 type=i32] [debug line = 126:4]
  %203 = call i32* @_ZN7StencilIiLm1ELm1ELm1ELm1EEclEmmmm(%struct.Stencil.9* %_mul_stencil, i64 0, i64 0, i64 0, i64 0), !dbg !7004 ; [#uses=1 type=i32*] [debug line = 126:4]
  store i32 %202, i32* %203, !dbg !7004           ; [debug line = 126:4]
  call void @llvm.dbg.declare(metadata !{i32* %_368}, metadata !7005), !dbg !7006 ; [debug line = 127:12] [debug variable = _368]
  %204 = call i32* @_ZN7StencilIiLm1ELm1ELm1ELm1EEclEmmmm(%struct.Stencil.9* %_mul_stencil, i64 0, i64 0, i64 0, i64 0), !dbg !7007 ; [#uses=1 type=i32*] [debug line = 127:19]
  %205 = load i32* %204, !dbg !7007               ; [#uses=1 type=i32] [debug line = 127:19]
  store i32 %205, i32* %_368, align 4, !dbg !7007 ; [debug line = 127:19]
  call void @llvm.dbg.declare(metadata !{i32* %_369}, metadata !7008), !dbg !7009 ; [debug line = 128:13] [debug variable = _369]
  %206 = call i32* @_ZN7StencilIjLm3ELm3ELm1ELm1EEclEmmmm(%struct.Stencil* %_hw_input_stencil, i64 1, i64 2, i64 0, i64 0), !dbg !7010 ; [#uses=1 type=i32*] [debug line = 128:20]
  %207 = load i32* %206, !dbg !7010               ; [#uses=1 type=i32] [debug line = 128:20]
  store i32 %207, i32* %_369, align 4, !dbg !7010 ; [debug line = 128:20]
  call void @llvm.dbg.declare(metadata !{i32* %_370}, metadata !7011), !dbg !7012 ; [debug line = 129:12] [debug variable = _370]
  %208 = load i32* %_369, align 4, !dbg !7013     ; [#uses=1 type=i32] [debug line = 129:34]
  store i32 %208, i32* %_370, align 4, !dbg !7013 ; [debug line = 129:34]
  call void @llvm.dbg.declare(metadata !{i32* %_371}, metadata !7014), !dbg !7015 ; [debug line = 130:12] [debug variable = _371]
  %209 = getelementptr inbounds [9 x i32]* %_p2_kernela0, i32 0, i64 7, !dbg !7016 ; [#uses=1 type=i32*] [debug line = 130:34]
  %210 = load i32* %209, align 4, !dbg !7016      ; [#uses=1 type=i32] [debug line = 130:34]
  store i32 %210, i32* %_371, align 4, !dbg !7016 ; [debug line = 130:34]
  call void @llvm.dbg.declare(metadata !{i32* %_372}, metadata !7017), !dbg !7018 ; [debug line = 131:12] [debug variable = _372]
  %211 = load i32* %_370, align 4, !dbg !7019     ; [#uses=1 type=i32] [debug line = 131:30]
  %212 = load i32* %_371, align 4, !dbg !7019     ; [#uses=1 type=i32] [debug line = 131:30]
  %213 = mul nsw i32 %211, %212, !dbg !7019       ; [#uses=1 type=i32] [debug line = 131:30]
  store i32 %213, i32* %_372, align 4, !dbg !7019 ; [debug line = 131:30]
  call void @llvm.dbg.declare(metadata !{i32* %_373}, metadata !7020), !dbg !7021 ; [debug line = 132:12] [debug variable = _373]
  %214 = load i32* %_368, align 4, !dbg !7022     ; [#uses=1 type=i32] [debug line = 132:30]
  %215 = load i32* %_372, align 4, !dbg !7022     ; [#uses=1 type=i32] [debug line = 132:30]
  %216 = add nsw i32 %214, %215, !dbg !7022       ; [#uses=1 type=i32] [debug line = 132:30]
  store i32 %216, i32* %_373, align 4, !dbg !7022 ; [debug line = 132:30]
  %217 = load i32* %_373, align 4, !dbg !7023     ; [#uses=1 type=i32] [debug line = 133:4]
  %218 = call i32* @_ZN7StencilIiLm1ELm1ELm1ELm1EEclEmmmm(%struct.Stencil.9* %_mul_stencil, i64 0, i64 0, i64 0, i64 0), !dbg !7023 ; [#uses=1 type=i32*] [debug line = 133:4]
  store i32 %217, i32* %218, !dbg !7023           ; [debug line = 133:4]
  call void @llvm.dbg.declare(metadata !{i32* %_374}, metadata !7024), !dbg !7025 ; [debug line = 134:12] [debug variable = _374]
  %219 = call i32* @_ZN7StencilIiLm1ELm1ELm1ELm1EEclEmmmm(%struct.Stencil.9* %_mul_stencil, i64 0, i64 0, i64 0, i64 0), !dbg !7026 ; [#uses=1 type=i32*] [debug line = 134:19]
  %220 = load i32* %219, !dbg !7026               ; [#uses=1 type=i32] [debug line = 134:19]
  store i32 %220, i32* %_374, align 4, !dbg !7026 ; [debug line = 134:19]
  call void @llvm.dbg.declare(metadata !{i32* %_375}, metadata !7027), !dbg !7028 ; [debug line = 135:13] [debug variable = _375]
  %221 = call i32* @_ZN7StencilIjLm3ELm3ELm1ELm1EEclEmmmm(%struct.Stencil* %_hw_input_stencil, i64 2, i64 2, i64 0, i64 0), !dbg !7029 ; [#uses=1 type=i32*] [debug line = 135:20]
  %222 = load i32* %221, !dbg !7029               ; [#uses=1 type=i32] [debug line = 135:20]
  store i32 %222, i32* %_375, align 4, !dbg !7029 ; [debug line = 135:20]
  call void @llvm.dbg.declare(metadata !{i32* %_376}, metadata !7030), !dbg !7031 ; [debug line = 136:12] [debug variable = _376]
  %223 = load i32* %_375, align 4, !dbg !7032     ; [#uses=1 type=i32] [debug line = 136:34]
  store i32 %223, i32* %_376, align 4, !dbg !7032 ; [debug line = 136:34]
  call void @llvm.dbg.declare(metadata !{i32* %_377}, metadata !7033), !dbg !7034 ; [debug line = 137:12] [debug variable = _377]
  %224 = getelementptr inbounds [9 x i32]* %_p2_kernela0, i32 0, i64 8, !dbg !7035 ; [#uses=1 type=i32*] [debug line = 137:34]
  %225 = load i32* %224, align 4, !dbg !7035      ; [#uses=1 type=i32] [debug line = 137:34]
  store i32 %225, i32* %_377, align 4, !dbg !7035 ; [debug line = 137:34]
  call void @llvm.dbg.declare(metadata !{i32* %_378}, metadata !7036), !dbg !7037 ; [debug line = 138:12] [debug variable = _378]
  %226 = load i32* %_376, align 4, !dbg !7038     ; [#uses=1 type=i32] [debug line = 138:30]
  %227 = load i32* %_377, align 4, !dbg !7038     ; [#uses=1 type=i32] [debug line = 138:30]
  %228 = mul nsw i32 %226, %227, !dbg !7038       ; [#uses=1 type=i32] [debug line = 138:30]
  store i32 %228, i32* %_378, align 4, !dbg !7038 ; [debug line = 138:30]
  call void @llvm.dbg.declare(metadata !{i32* %_379}, metadata !7039), !dbg !7040 ; [debug line = 139:12] [debug variable = _379]
  %229 = load i32* %_374, align 4, !dbg !7041     ; [#uses=1 type=i32] [debug line = 139:30]
  %230 = load i32* %_378, align 4, !dbg !7041     ; [#uses=1 type=i32] [debug line = 139:30]
  %231 = add nsw i32 %229, %230, !dbg !7041       ; [#uses=1 type=i32] [debug line = 139:30]
  store i32 %231, i32* %_379, align 4, !dbg !7041 ; [debug line = 139:30]
  %232 = load i32* %_379, align 4, !dbg !7042     ; [#uses=1 type=i32] [debug line = 140:4]
  %233 = call i32* @_ZN7StencilIiLm1ELm1ELm1ELm1EEclEmmmm(%struct.Stencil.9* %_mul_stencil, i64 0, i64 0, i64 0, i64 0), !dbg !7042 ; [#uses=1 type=i32*] [debug line = 140:4]
  store i32 %232, i32* %233, !dbg !7042           ; [debug line = 140:4]
  call void @_ZN7StencilIiLm1ELm1ELm1ELm1EEcv13PackedStencilIiLm1ELm1ELm1ELm1EEEv(%struct.PackedStencil.8* sret %5, %struct.Stencil.9* %_mul_stencil), !dbg !7043 ; [debug line = 141:37]
  call void @_ZN3hls6streamI13PackedStencilIiLm1ELm1ELm1ELm1EEE5writeERKS2_(%"class.hls::stream.7"* %_mul_stencil_update_stream, %struct.PackedStencil.8* %5), !dbg !7043 ; [debug line = 141:37]
  call void (...)* @_ssdm_RegionEnd(i8* getelementptr inbounds ([12 x i8]* @.str3, i32 0, i32 0)) nounwind, !dbg !7044 ; [debug line = 143:3]
  br label %234, !dbg !7044                       ; [debug line = 143:3]

; <label>:234                                     ; preds = %51
  %235 = load i32* %_mul_x___scan_dim_0, align 4, !dbg !7045 ; [#uses=1 type=i32] [debug line = 66:69]
  %236 = add nsw i32 %235, 1, !dbg !7045          ; [#uses=1 type=i32] [debug line = 66:69]
  store i32 %236, i32* %_mul_x___scan_dim_0, align 4, !dbg !7045 ; [debug line = 66:69]
  br label %48, !dbg !7045                        ; [debug line = 66:69]

; <label>:237                                     ; preds = %48
  br label %238, !dbg !7046                       ; [debug line = 144:2]

; <label>:238                                     ; preds = %237
  %239 = load i32* %_mul_y___scan_dim_1, align 4, !dbg !7047 ; [#uses=1 type=i32] [debug line = 64:68]
  %240 = add nsw i32 %239, 1, !dbg !7047          ; [#uses=1 type=i32] [debug line = 64:68]
  store i32 %240, i32* %_mul_y___scan_dim_1, align 4, !dbg !7047 ; [debug line = 64:68]
  br label %44, !dbg !7047                        ; [debug line = 64:68]

; <label>:241                                     ; preds = %44
  call void @llvm.dbg.declare(metadata !{%"class.hls::stream.10"* %_mul_stencil_stream}, metadata !7048), !dbg !7049 ; [debug line = 146:45] [debug variable = _mul_stencil_stream]
  call void @_ZN3hls6streamI13PackedStencilIiLm2ELm2ELm1ELm1EEEC1Ev(%"class.hls::stream.10"* %_mul_stencil_stream), !dbg !7050 ; [debug line = 146:64]
  call void (...)* @_ssdm_SpecStream(%"class.hls::stream.10"* %_mul_stencil_stream, i32 0, i32 1, i8* getelementptr inbounds ([1 x i8]* @.str, i32 0, i32 0)) nounwind, !dbg !7051 ; [debug line = 147:1]
  call void (...)* @_ssdm_op_SpecResource(%"class.hls::stream.10"* %_mul_stencil_stream, i8* getelementptr inbounds ([1 x i8]* @.str, i32 0, i32 0), i8* getelementptr inbounds ([9 x i8]* @.str2, i32 0, i32 0), i8* getelementptr inbounds ([1 x i8]* @.str, i32 0, i32 0), i32 -1, i8* getelementptr inbounds ([1 x i8]* @.str, i32 0, i32 0), i8* getelementptr inbounds ([1 x i8]* @.str, i32 0, i32 0), i8* getelementptr inbounds ([1 x i8]* @.str, i32 0, i32 0), i8* getelementptr inbounds ([1 x i8]* @.str, i32 0, i32 0), i8* getelementptr inbounds ([1 x i8]* @.str, i32 0, i32 0)) nounwind, !dbg !7052 ; [debug line = 148:1]
  call void @_Z10linebufferILm1918ELm1078ELm1ELm1ELm1ELm1ELm1ELm1ELm2ELm2ELm1ELm1EiEvRN3hls6streamI13PackedStencilIT11_XT3_EXT4_EXT5_EXT6_EEEERNS1_IS2_IS3_XT7_EXT8_EXT9_EXT10_EEEE(%"class.hls::stream.7"* %_mul_stencil_update_stream, %"class.hls::stream.10"* %_mul_stencil_stream), !dbg !7053 ; [debug line = 150:2]
  call void @llvm.dbg.declare(metadata !{%"class.hls::stream.10"** %_mul_stencil_stream_to_p2_mul1}, metadata !7054), !dbg !7055 ; [debug line = 153:46] [debug variable = _mul_stencil_stream_to_p2_mul1]
  store %"class.hls::stream.10"* %_mul_stencil_stream, %"class.hls::stream.10"** %_mul_stencil_stream_to_p2_mul1, align 8, !dbg !7056 ; [debug line = 153:98]
  call void @llvm.dbg.declare(metadata !{%"class.hls::stream.7"* %_p2_mul1_stencil_stream}, metadata !7057), !dbg !7058 ; [debug line = 155:45] [debug variable = _p2_mul1_stencil_stream]
  call void @_ZN3hls6streamI13PackedStencilIiLm1ELm1ELm1ELm1EEEC1Ev(%"class.hls::stream.7"* %_p2_mul1_stencil_stream), !dbg !7059 ; [debug line = 155:68]
  call void (...)* @_ssdm_SpecStream(%"class.hls::stream.7"* %_p2_mul1_stencil_stream, i32 0, i32 1, i8* getelementptr inbounds ([1 x i8]* @.str, i32 0, i32 0)) nounwind, !dbg !7060 ; [debug line = 156:1]
  call void (...)* @_ssdm_op_SpecResource(%"class.hls::stream.7"* %_p2_mul1_stencil_stream, i8* getelementptr inbounds ([1 x i8]* @.str, i32 0, i32 0), i8* getelementptr inbounds ([9 x i8]* @.str2, i32 0, i32 0), i8* getelementptr inbounds ([1 x i8]* @.str, i32 0, i32 0), i32 -1, i8* getelementptr inbounds ([1 x i8]* @.str, i32 0, i32 0), i8* getelementptr inbounds ([1 x i8]* @.str, i32 0, i32 0), i8* getelementptr inbounds ([1 x i8]* @.str, i32 0, i32 0), i8* getelementptr inbounds ([1 x i8]* @.str, i32 0, i32 0), i8* getelementptr inbounds ([1 x i8]* @.str, i32 0, i32 0)) nounwind, !dbg !7061 ; [debug line = 157:1]
  call void @llvm.dbg.declare(metadata !{i32* %_p2_mul1_y___scan_dim_1}, metadata !7062), !dbg !7064 ; [debug line = 160:11] [debug variable = _p2_mul1_y___scan_dim_1]
  store i32 0, i32* %_p2_mul1_y___scan_dim_1, align 4, !dbg !7065 ; [debug line = 160:38]
  br label %242, !dbg !7065                       ; [debug line = 160:38]

; <label>:242                                     ; preds = %380, %241
  %243 = load i32* %_p2_mul1_y___scan_dim_1, align 4, !dbg !7065 ; [#uses=1 type=i32] [debug line = 160:38]
  %244 = icmp slt i32 %243, 1077, !dbg !7065      ; [#uses=1 type=i1] [debug line = 160:38]
  br i1 %244, label %245, label %383, !dbg !7065  ; [debug line = 160:38]

; <label>:245                                     ; preds = %242
  call void @llvm.dbg.declare(metadata !{i32* %_p2_mul1_x___scan_dim_0}, metadata !7066), !dbg !7069 ; [debug line = 162:12] [debug variable = _p2_mul1_x___scan_dim_0]
  store i32 0, i32* %_p2_mul1_x___scan_dim_0, align 4, !dbg !7070 ; [debug line = 162:39]
  br label %246, !dbg !7070                       ; [debug line = 162:39]

; <label>:246                                     ; preds = %376, %245
  %247 = load i32* %_p2_mul1_x___scan_dim_0, align 4, !dbg !7070 ; [#uses=1 type=i32] [debug line = 162:39]
  %248 = icmp slt i32 %247, 1917, !dbg !7070      ; [#uses=1 type=i1] [debug line = 162:39]
  br i1 %248, label %249, label %379, !dbg !7070  ; [debug line = 162:39]

; <label>:249                                     ; preds = %246
  call void (...)* @_ssdm_RegionBegin(i8* getelementptr inbounds ([12 x i8]* @.str5, i32 0, i32 0)) nounwind, !dbg !7071 ; [debug line = 163:4]
  call void (...)* @_ssdm_op_SpecPipeline(i32 1, i32 1, i32 1, i32 0, i8* getelementptr inbounds ([1 x i8]* @.str, i32 0, i32 0)) nounwind, !dbg !7073 ; [debug line = 164:1]
  call void @llvm.dbg.declare(metadata !{%struct.Stencil.15* %_mul_stencil1}, metadata !7074), !dbg !7075 ; [debug line = 165:25] [debug variable = _mul_stencil]
  %250 = getelementptr inbounds %struct.Stencil.15* %_mul_stencil1, i32 0, i32 0, !dbg !7076 ; [#uses=1 type=[1 x [1 x [2 x [2 x i32]]]]*] [debug line = 166:1]
  %251 = getelementptr inbounds [1 x [1 x [2 x [2 x i32]]]]* %250, i32 0, i32 0, !dbg !7076 ; [#uses=1 type=[1 x [2 x [2 x i32]]]*] [debug line = 166:1]
  call void (...)* @_ssdm_SpecArrayPartition([1 x [2 x [2 x i32]]]* %251, i32 0, i8* getelementptr inbounds ([9 x i8]* @.str4, i32 0, i32 0), i32 0, i8* getelementptr inbounds ([1 x i8]* @.str, i32 0, i32 0)) nounwind, !dbg !7076 ; [debug line = 166:1]
  %252 = load %"class.hls::stream.10"** %_mul_stencil_stream_to_p2_mul1, align 8, !dbg !7077 ; [#uses=1 type=%"class.hls::stream.10"*] [debug line = 168:17]
  call void @_ZN3hls6streamI13PackedStencilIiLm2ELm2ELm1ELm1EEE4readEv(%struct.PackedStencil.11* sret %7, %"class.hls::stream.10"* %252), !dbg !7077 ; [debug line = 168:17]
  call void @_ZN13PackedStencilIiLm2ELm2ELm1ELm1EEcv7StencilIiLm2ELm2ELm1ELm1EEEv(%struct.Stencil.15* sret %6, %struct.PackedStencil.11* %7), !dbg !7077 ; [debug line = 168:17]
  %253 = bitcast %struct.Stencil.15* %_mul_stencil1 to i8*, !dbg !7077 ; [#uses=0 type=i8*] [debug line = 168:17]
  %254 = bitcast %struct.Stencil.15* %6 to i8*, !dbg !7077 ; [#uses=0 type=i8*] [debug line = 168:17]
  %255 = getelementptr inbounds %struct.Stencil.15* %_mul_stencil1, i32 0, i32 0, !dbg !7077 ; [#uses=1 type=[1 x [1 x [2 x [2 x i32]]]]*] [debug line = 168:17]
  %256 = getelementptr inbounds %struct.Stencil.15* %6, i32 0, i32 0, !dbg !7077 ; [#uses=1 type=[1 x [1 x [2 x [2 x i32]]]]*] [debug line = 168:17]
  %257 = getelementptr inbounds [1 x [1 x [2 x [2 x i32]]]]* %255, i32 0, i32 0, !dbg !7077 ; [#uses=1 type=[1 x [2 x [2 x i32]]]*] [debug line = 168:17]
  %258 = getelementptr inbounds [1 x [1 x [2 x [2 x i32]]]]* %256, i32 0, i32 0, !dbg !7077 ; [#uses=1 type=[1 x [2 x [2 x i32]]]*] [debug line = 168:17]
  %259 = getelementptr inbounds [1 x [2 x [2 x i32]]]* %257, i32 0, i32 0, !dbg !7077 ; [#uses=2 type=[2 x [2 x i32]]*] [debug line = 168:17]
  %260 = getelementptr inbounds [1 x [2 x [2 x i32]]]* %258, i32 0, i32 0, !dbg !7077 ; [#uses=2 type=[2 x [2 x i32]]*] [debug line = 168:17]
  %261 = getelementptr inbounds [2 x [2 x i32]]* %259, i32 0, i32 0, !dbg !7077 ; [#uses=2 type=[2 x i32]*] [debug line = 168:17]
  %262 = getelementptr inbounds [2 x [2 x i32]]* %260, i32 0, i32 0, !dbg !7077 ; [#uses=2 type=[2 x i32]*] [debug line = 168:17]
  %263 = getelementptr inbounds [2 x i32]* %261, i32 0, i32 0, !dbg !7077 ; [#uses=1 type=i32*] [debug line = 168:17]
  %264 = getelementptr inbounds [2 x i32]* %262, i32 0, i32 0, !dbg !7077 ; [#uses=1 type=i32*] [debug line = 168:17]
  %265 = load i32* %264, !dbg !7077               ; [#uses=1 type=i32] [debug line = 168:17]
  store i32 %265, i32* %263, !dbg !7077           ; [debug line = 168:17]
  %266 = getelementptr inbounds [2 x i32]* %261, i32 0, i32 1, !dbg !7077 ; [#uses=1 type=i32*] [debug line = 168:17]
  %267 = getelementptr inbounds [2 x i32]* %262, i32 0, i32 1, !dbg !7077 ; [#uses=1 type=i32*] [debug line = 168:17]
  %268 = load i32* %267, !dbg !7077               ; [#uses=1 type=i32] [debug line = 168:17]
  store i32 %268, i32* %266, !dbg !7077           ; [debug line = 168:17]
  %269 = getelementptr inbounds [2 x [2 x i32]]* %259, i32 0, i32 1, !dbg !7077 ; [#uses=2 type=[2 x i32]*] [debug line = 168:17]
  %270 = getelementptr inbounds [2 x [2 x i32]]* %260, i32 0, i32 1, !dbg !7077 ; [#uses=2 type=[2 x i32]*] [debug line = 168:17]
  %271 = getelementptr inbounds [2 x i32]* %269, i32 0, i32 0, !dbg !7077 ; [#uses=1 type=i32*] [debug line = 168:17]
  %272 = getelementptr inbounds [2 x i32]* %270, i32 0, i32 0, !dbg !7077 ; [#uses=1 type=i32*] [debug line = 168:17]
  %273 = load i32* %272, !dbg !7077               ; [#uses=1 type=i32] [debug line = 168:17]
  store i32 %273, i32* %271, !dbg !7077           ; [debug line = 168:17]
  %274 = getelementptr inbounds [2 x i32]* %269, i32 0, i32 1, !dbg !7077 ; [#uses=1 type=i32*] [debug line = 168:17]
  %275 = getelementptr inbounds [2 x i32]* %270, i32 0, i32 1, !dbg !7077 ; [#uses=1 type=i32*] [debug line = 168:17]
  %276 = load i32* %275, !dbg !7077               ; [#uses=1 type=i32] [debug line = 168:17]
  store i32 %276, i32* %274, !dbg !7077           ; [debug line = 168:17]
  call void @llvm.dbg.declare(metadata !{%struct.Stencil.9* %_p2_mul1_stencil}, metadata !7078), !dbg !7079 ; [debug line = 170:27] [debug variable = _p2_mul1_stencil]
  %277 = getelementptr inbounds %struct.Stencil.9* %_p2_mul1_stencil, i32 0, i32 0, !dbg !7080 ; [#uses=1 type=[1 x [1 x [1 x [1 x i32]]]]*] [debug line = 171:1]
  %278 = getelementptr inbounds [1 x [1 x [1 x [1 x i32]]]]* %277, i32 0, i32 0, !dbg !7080 ; [#uses=1 type=[1 x [1 x [1 x i32]]]*] [debug line = 171:1]
  call void (...)* @_ssdm_SpecArrayPartition([1 x [1 x [1 x i32]]]* %278, i32 0, i8* getelementptr inbounds ([9 x i8]* @.str4, i32 0, i32 0), i32 0, i8* getelementptr inbounds ([1 x i8]* @.str, i32 0, i32 0)) nounwind, !dbg !7080 ; [debug line = 171:1]
  %279 = call i32* @_ZN7StencilIiLm1ELm1ELm1ELm1EEclEmmmm(%struct.Stencil.9* %_p2_mul1_stencil, i64 0, i64 0, i64 0, i64 0), !dbg !7081 ; [#uses=1 type=i32*] [debug line = 173:2]
  store i32 0, i32* %279, !dbg !7081              ; [debug line = 173:2]
  call void @llvm.dbg.declare(metadata !{i32* %_380}, metadata !7082), !dbg !7083 ; [debug line = 174:12] [debug variable = _380]
  %280 = call i32* @_ZN7StencilIiLm1ELm1ELm1ELm1EEclEmmmm(%struct.Stencil.9* %_p2_mul1_stencil, i64 0, i64 0, i64 0, i64 0), !dbg !7084 ; [#uses=1 type=i32*] [debug line = 174:19]
  %281 = load i32* %280, !dbg !7084               ; [#uses=1 type=i32] [debug line = 174:19]
  store i32 %281, i32* %_380, align 4, !dbg !7084 ; [debug line = 174:19]
  call void @llvm.dbg.declare(metadata !{i32* %_381}, metadata !7085), !dbg !7086 ; [debug line = 175:12] [debug variable = _381]
  %282 = call i32* @_ZN7StencilIiLm2ELm2ELm1ELm1EEclEmmmm(%struct.Stencil.15* %_mul_stencil1, i64 0, i64 0, i64 0, i64 0), !dbg !7087 ; [#uses=1 type=i32*] [debug line = 175:19]
  %283 = load i32* %282, !dbg !7087               ; [#uses=1 type=i32] [debug line = 175:19]
  store i32 %283, i32* %_381, align 4, !dbg !7087 ; [debug line = 175:19]
  call void @llvm.dbg.declare(metadata !{float* %_382}, metadata !7088), !dbg !7089 ; [debug line = 176:10] [debug variable = _382]
  %284 = load i32* %_381, align 4, !dbg !7090     ; [#uses=1 type=i32] [debug line = 176:30]
  %285 = sitofp i32 %284 to float, !dbg !7090     ; [#uses=1 type=float] [debug line = 176:30]
  store float %285, float* %_382, align 4, !dbg !7090 ; [debug line = 176:30]
  call void @llvm.dbg.declare(metadata !{double* %_383}, metadata !7091), !dbg !7092 ; [debug line = 177:11] [debug variable = _383]
  %286 = load float* %_382, align 4, !dbg !7093   ; [#uses=1 type=float] [debug line = 177:32]
  %287 = fpext float %286 to double, !dbg !7093   ; [#uses=1 type=double] [debug line = 177:32]
  store double %287, double* %_383, align 8, !dbg !7093 ; [debug line = 177:32]
  call void @llvm.dbg.declare(metadata !{double* %_384}, metadata !7094), !dbg !7095 ; [debug line = 178:11] [debug variable = _384]
  %288 = load double* %_383, align 8, !dbg !7096  ; [#uses=1 type=double] [debug line = 178:75]
  %289 = call float @_Z15float_from_bitsj(i32 1031798784), !dbg !7097 ; [#uses=1 type=float] [debug line = 178:34]
  %290 = fpext float %289 to double, !dbg !7097   ; [#uses=1 type=double] [debug line = 178:34]
  %291 = fmul double %288, %290, !dbg !7097       ; [#uses=1 type=double] [debug line = 178:34]
  store double %291, double* %_384, align 8, !dbg !7097 ; [debug line = 178:34]
  call void @llvm.dbg.declare(metadata !{i32* %_385}, metadata !7098), !dbg !7099 ; [debug line = 179:12] [debug variable = _385]
  %292 = load double* %_384, align 8, !dbg !7100  ; [#uses=1 type=double] [debug line = 179:34]
  %293 = fptosi double %292 to i32, !dbg !7100    ; [#uses=1 type=i32] [debug line = 179:34]
  store i32 %293, i32* %_385, align 4, !dbg !7100 ; [debug line = 179:34]
  call void @llvm.dbg.declare(metadata !{i32* %_386}, metadata !7101), !dbg !7102 ; [debug line = 180:12] [debug variable = _386]
  %294 = getelementptr inbounds [4 x i32]* %_p2_kernel1a1, i32 0, i64 0, !dbg !7103 ; [#uses=1 type=i32*] [debug line = 180:35]
  %295 = load i32* %294, align 4, !dbg !7103      ; [#uses=1 type=i32] [debug line = 180:35]
  store i32 %295, i32* %_386, align 4, !dbg !7103 ; [debug line = 180:35]
  call void @llvm.dbg.declare(metadata !{i32* %_387}, metadata !7104), !dbg !7105 ; [debug line = 181:12] [debug variable = _387]
  %296 = load i32* %_385, align 4, !dbg !7106     ; [#uses=1 type=i32] [debug line = 181:30]
  %297 = load i32* %_386, align 4, !dbg !7106     ; [#uses=1 type=i32] [debug line = 181:30]
  %298 = mul nsw i32 %296, %297, !dbg !7106       ; [#uses=1 type=i32] [debug line = 181:30]
  store i32 %298, i32* %_387, align 4, !dbg !7106 ; [debug line = 181:30]
  call void @llvm.dbg.declare(metadata !{i32* %_388}, metadata !7107), !dbg !7108 ; [debug line = 182:12] [debug variable = _388]
  %299 = load i32* %_380, align 4, !dbg !7109     ; [#uses=1 type=i32] [debug line = 182:30]
  %300 = load i32* %_387, align 4, !dbg !7109     ; [#uses=1 type=i32] [debug line = 182:30]
  %301 = add nsw i32 %299, %300, !dbg !7109       ; [#uses=1 type=i32] [debug line = 182:30]
  store i32 %301, i32* %_388, align 4, !dbg !7109 ; [debug line = 182:30]
  %302 = load i32* %_388, align 4, !dbg !7110     ; [#uses=1 type=i32] [debug line = 183:4]
  %303 = call i32* @_ZN7StencilIiLm1ELm1ELm1ELm1EEclEmmmm(%struct.Stencil.9* %_p2_mul1_stencil, i64 0, i64 0, i64 0, i64 0), !dbg !7110 ; [#uses=1 type=i32*] [debug line = 183:4]
  store i32 %302, i32* %303, !dbg !7110           ; [debug line = 183:4]
  call void @llvm.dbg.declare(metadata !{i32* %_389}, metadata !7111), !dbg !7112 ; [debug line = 184:12] [debug variable = _389]
  %304 = call i32* @_ZN7StencilIiLm1ELm1ELm1ELm1EEclEmmmm(%struct.Stencil.9* %_p2_mul1_stencil, i64 0, i64 0, i64 0, i64 0), !dbg !7113 ; [#uses=1 type=i32*] [debug line = 184:19]
  %305 = load i32* %304, !dbg !7113               ; [#uses=1 type=i32] [debug line = 184:19]
  store i32 %305, i32* %_389, align 4, !dbg !7113 ; [debug line = 184:19]
  call void @llvm.dbg.declare(metadata !{i32* %_390}, metadata !7114), !dbg !7115 ; [debug line = 185:12] [debug variable = _390]
  %306 = call i32* @_ZN7StencilIiLm2ELm2ELm1ELm1EEclEmmmm(%struct.Stencil.15* %_mul_stencil1, i64 1, i64 0, i64 0, i64 0), !dbg !7116 ; [#uses=1 type=i32*] [debug line = 185:19]
  %307 = load i32* %306, !dbg !7116               ; [#uses=1 type=i32] [debug line = 185:19]
  store i32 %307, i32* %_390, align 4, !dbg !7116 ; [debug line = 185:19]
  call void @llvm.dbg.declare(metadata !{float* %_391}, metadata !7117), !dbg !7118 ; [debug line = 186:10] [debug variable = _391]
  %308 = load i32* %_390, align 4, !dbg !7119     ; [#uses=1 type=i32] [debug line = 186:30]
  %309 = sitofp i32 %308 to float, !dbg !7119     ; [#uses=1 type=float] [debug line = 186:30]
  store float %309, float* %_391, align 4, !dbg !7119 ; [debug line = 186:30]
  call void @llvm.dbg.declare(metadata !{double* %_392}, metadata !7120), !dbg !7121 ; [debug line = 187:11] [debug variable = _392]
  %310 = load float* %_391, align 4, !dbg !7122   ; [#uses=1 type=float] [debug line = 187:32]
  %311 = fpext float %310 to double, !dbg !7122   ; [#uses=1 type=double] [debug line = 187:32]
  store double %311, double* %_392, align 8, !dbg !7122 ; [debug line = 187:32]
  call void @llvm.dbg.declare(metadata !{double* %_393}, metadata !7123), !dbg !7124 ; [debug line = 188:11] [debug variable = _393]
  %312 = load double* %_392, align 8, !dbg !7125  ; [#uses=1 type=double] [debug line = 188:75]
  %313 = call float @_Z15float_from_bitsj(i32 1031798784), !dbg !7126 ; [#uses=1 type=float] [debug line = 188:34]
  %314 = fpext float %313 to double, !dbg !7126   ; [#uses=1 type=double] [debug line = 188:34]
  %315 = fmul double %312, %314, !dbg !7126       ; [#uses=1 type=double] [debug line = 188:34]
  store double %315, double* %_393, align 8, !dbg !7126 ; [debug line = 188:34]
  call void @llvm.dbg.declare(metadata !{i32* %_394}, metadata !7127), !dbg !7128 ; [debug line = 189:12] [debug variable = _394]
  %316 = load double* %_393, align 8, !dbg !7129  ; [#uses=1 type=double] [debug line = 189:34]
  %317 = fptosi double %316 to i32, !dbg !7129    ; [#uses=1 type=i32] [debug line = 189:34]
  store i32 %317, i32* %_394, align 4, !dbg !7129 ; [debug line = 189:34]
  call void @llvm.dbg.declare(metadata !{i32* %_395}, metadata !7130), !dbg !7131 ; [debug line = 190:12] [debug variable = _395]
  %318 = getelementptr inbounds [4 x i32]* %_p2_kernel1a1, i32 0, i64 1, !dbg !7132 ; [#uses=1 type=i32*] [debug line = 190:35]
  %319 = load i32* %318, align 4, !dbg !7132      ; [#uses=1 type=i32] [debug line = 190:35]
  store i32 %319, i32* %_395, align 4, !dbg !7132 ; [debug line = 190:35]
  call void @llvm.dbg.declare(metadata !{i32* %_396}, metadata !7133), !dbg !7134 ; [debug line = 191:12] [debug variable = _396]
  %320 = load i32* %_394, align 4, !dbg !7135     ; [#uses=1 type=i32] [debug line = 191:30]
  %321 = load i32* %_395, align 4, !dbg !7135     ; [#uses=1 type=i32] [debug line = 191:30]
  %322 = mul nsw i32 %320, %321, !dbg !7135       ; [#uses=1 type=i32] [debug line = 191:30]
  store i32 %322, i32* %_396, align 4, !dbg !7135 ; [debug line = 191:30]
  call void @llvm.dbg.declare(metadata !{i32* %_397}, metadata !7136), !dbg !7137 ; [debug line = 192:12] [debug variable = _397]
  %323 = load i32* %_389, align 4, !dbg !7138     ; [#uses=1 type=i32] [debug line = 192:30]
  %324 = load i32* %_396, align 4, !dbg !7138     ; [#uses=1 type=i32] [debug line = 192:30]
  %325 = add nsw i32 %323, %324, !dbg !7138       ; [#uses=1 type=i32] [debug line = 192:30]
  store i32 %325, i32* %_397, align 4, !dbg !7138 ; [debug line = 192:30]
  %326 = load i32* %_397, align 4, !dbg !7139     ; [#uses=1 type=i32] [debug line = 193:4]
  %327 = call i32* @_ZN7StencilIiLm1ELm1ELm1ELm1EEclEmmmm(%struct.Stencil.9* %_p2_mul1_stencil, i64 0, i64 0, i64 0, i64 0), !dbg !7139 ; [#uses=1 type=i32*] [debug line = 193:4]
  store i32 %326, i32* %327, !dbg !7139           ; [debug line = 193:4]
  call void @llvm.dbg.declare(metadata !{i32* %_398}, metadata !7140), !dbg !7141 ; [debug line = 194:12] [debug variable = _398]
  %328 = call i32* @_ZN7StencilIiLm1ELm1ELm1ELm1EEclEmmmm(%struct.Stencil.9* %_p2_mul1_stencil, i64 0, i64 0, i64 0, i64 0), !dbg !7142 ; [#uses=1 type=i32*] [debug line = 194:19]
  %329 = load i32* %328, !dbg !7142               ; [#uses=1 type=i32] [debug line = 194:19]
  store i32 %329, i32* %_398, align 4, !dbg !7142 ; [debug line = 194:19]
  call void @llvm.dbg.declare(metadata !{i32* %_399}, metadata !7143), !dbg !7144 ; [debug line = 195:12] [debug variable = _399]
  %330 = call i32* @_ZN7StencilIiLm2ELm2ELm1ELm1EEclEmmmm(%struct.Stencil.15* %_mul_stencil1, i64 0, i64 1, i64 0, i64 0), !dbg !7145 ; [#uses=1 type=i32*] [debug line = 195:19]
  %331 = load i32* %330, !dbg !7145               ; [#uses=1 type=i32] [debug line = 195:19]
  store i32 %331, i32* %_399, align 4, !dbg !7145 ; [debug line = 195:19]
  call void @llvm.dbg.declare(metadata !{float* %_400}, metadata !7146), !dbg !7147 ; [debug line = 196:10] [debug variable = _400]
  %332 = load i32* %_399, align 4, !dbg !7148     ; [#uses=1 type=i32] [debug line = 196:30]
  %333 = sitofp i32 %332 to float, !dbg !7148     ; [#uses=1 type=float] [debug line = 196:30]
  store float %333, float* %_400, align 4, !dbg !7148 ; [debug line = 196:30]
  call void @llvm.dbg.declare(metadata !{double* %_401}, metadata !7149), !dbg !7150 ; [debug line = 197:11] [debug variable = _401]
  %334 = load float* %_400, align 4, !dbg !7151   ; [#uses=1 type=float] [debug line = 197:32]
  %335 = fpext float %334 to double, !dbg !7151   ; [#uses=1 type=double] [debug line = 197:32]
  store double %335, double* %_401, align 8, !dbg !7151 ; [debug line = 197:32]
  call void @llvm.dbg.declare(metadata !{double* %_402}, metadata !7152), !dbg !7153 ; [debug line = 198:11] [debug variable = _402]
  %336 = load double* %_401, align 8, !dbg !7154  ; [#uses=1 type=double] [debug line = 198:75]
  %337 = call float @_Z15float_from_bitsj(i32 1031798784), !dbg !7155 ; [#uses=1 type=float] [debug line = 198:34]
  %338 = fpext float %337 to double, !dbg !7155   ; [#uses=1 type=double] [debug line = 198:34]
  %339 = fmul double %336, %338, !dbg !7155       ; [#uses=1 type=double] [debug line = 198:34]
  store double %339, double* %_402, align 8, !dbg !7155 ; [debug line = 198:34]
  call void @llvm.dbg.declare(metadata !{i32* %_403}, metadata !7156), !dbg !7157 ; [debug line = 199:12] [debug variable = _403]
  %340 = load double* %_402, align 8, !dbg !7158  ; [#uses=1 type=double] [debug line = 199:34]
  %341 = fptosi double %340 to i32, !dbg !7158    ; [#uses=1 type=i32] [debug line = 199:34]
  store i32 %341, i32* %_403, align 4, !dbg !7158 ; [debug line = 199:34]
  call void @llvm.dbg.declare(metadata !{i32* %_404}, metadata !7159), !dbg !7160 ; [debug line = 200:12] [debug variable = _404]
  %342 = getelementptr inbounds [4 x i32]* %_p2_kernel1a1, i32 0, i64 2, !dbg !7161 ; [#uses=1 type=i32*] [debug line = 200:35]
  %343 = load i32* %342, align 4, !dbg !7161      ; [#uses=1 type=i32] [debug line = 200:35]
  store i32 %343, i32* %_404, align 4, !dbg !7161 ; [debug line = 200:35]
  call void @llvm.dbg.declare(metadata !{i32* %_405}, metadata !7162), !dbg !7163 ; [debug line = 201:12] [debug variable = _405]
  %344 = load i32* %_403, align 4, !dbg !7164     ; [#uses=1 type=i32] [debug line = 201:30]
  %345 = load i32* %_404, align 4, !dbg !7164     ; [#uses=1 type=i32] [debug line = 201:30]
  %346 = mul nsw i32 %344, %345, !dbg !7164       ; [#uses=1 type=i32] [debug line = 201:30]
  store i32 %346, i32* %_405, align 4, !dbg !7164 ; [debug line = 201:30]
  call void @llvm.dbg.declare(metadata !{i32* %_406}, metadata !7165), !dbg !7166 ; [debug line = 202:12] [debug variable = _406]
  %347 = load i32* %_398, align 4, !dbg !7167     ; [#uses=1 type=i32] [debug line = 202:30]
  %348 = load i32* %_405, align 4, !dbg !7167     ; [#uses=1 type=i32] [debug line = 202:30]
  %349 = add nsw i32 %347, %348, !dbg !7167       ; [#uses=1 type=i32] [debug line = 202:30]
  store i32 %349, i32* %_406, align 4, !dbg !7167 ; [debug line = 202:30]
  %350 = load i32* %_406, align 4, !dbg !7168     ; [#uses=1 type=i32] [debug line = 203:4]
  %351 = call i32* @_ZN7StencilIiLm1ELm1ELm1ELm1EEclEmmmm(%struct.Stencil.9* %_p2_mul1_stencil, i64 0, i64 0, i64 0, i64 0), !dbg !7168 ; [#uses=1 type=i32*] [debug line = 203:4]
  store i32 %350, i32* %351, !dbg !7168           ; [debug line = 203:4]
  call void @llvm.dbg.declare(metadata !{i32* %_407}, metadata !7169), !dbg !7170 ; [debug line = 204:12] [debug variable = _407]
  %352 = call i32* @_ZN7StencilIiLm1ELm1ELm1ELm1EEclEmmmm(%struct.Stencil.9* %_p2_mul1_stencil, i64 0, i64 0, i64 0, i64 0), !dbg !7171 ; [#uses=1 type=i32*] [debug line = 204:19]
  %353 = load i32* %352, !dbg !7171               ; [#uses=1 type=i32] [debug line = 204:19]
  store i32 %353, i32* %_407, align 4, !dbg !7171 ; [debug line = 204:19]
  call void @llvm.dbg.declare(metadata !{i32* %_408}, metadata !7172), !dbg !7173 ; [debug line = 205:12] [debug variable = _408]
  %354 = call i32* @_ZN7StencilIiLm2ELm2ELm1ELm1EEclEmmmm(%struct.Stencil.15* %_mul_stencil1, i64 1, i64 1, i64 0, i64 0), !dbg !7174 ; [#uses=1 type=i32*] [debug line = 205:19]
  %355 = load i32* %354, !dbg !7174               ; [#uses=1 type=i32] [debug line = 205:19]
  store i32 %355, i32* %_408, align 4, !dbg !7174 ; [debug line = 205:19]
  call void @llvm.dbg.declare(metadata !{float* %_409}, metadata !7175), !dbg !7176 ; [debug line = 206:10] [debug variable = _409]
  %356 = load i32* %_408, align 4, !dbg !7177     ; [#uses=1 type=i32] [debug line = 206:30]
  %357 = sitofp i32 %356 to float, !dbg !7177     ; [#uses=1 type=float] [debug line = 206:30]
  store float %357, float* %_409, align 4, !dbg !7177 ; [debug line = 206:30]
  call void @llvm.dbg.declare(metadata !{double* %_410}, metadata !7178), !dbg !7179 ; [debug line = 207:11] [debug variable = _410]
  %358 = load float* %_409, align 4, !dbg !7180   ; [#uses=1 type=float] [debug line = 207:32]
  %359 = fpext float %358 to double, !dbg !7180   ; [#uses=1 type=double] [debug line = 207:32]
  store double %359, double* %_410, align 8, !dbg !7180 ; [debug line = 207:32]
  call void @llvm.dbg.declare(metadata !{double* %_411}, metadata !7181), !dbg !7182 ; [debug line = 208:11] [debug variable = _411]
  %360 = load double* %_410, align 8, !dbg !7183  ; [#uses=1 type=double] [debug line = 208:75]
  %361 = call float @_Z15float_from_bitsj(i32 1031798784), !dbg !7184 ; [#uses=1 type=float] [debug line = 208:34]
  %362 = fpext float %361 to double, !dbg !7184   ; [#uses=1 type=double] [debug line = 208:34]
  %363 = fmul double %360, %362, !dbg !7184       ; [#uses=1 type=double] [debug line = 208:34]
  store double %363, double* %_411, align 8, !dbg !7184 ; [debug line = 208:34]
  call void @llvm.dbg.declare(metadata !{i32* %_412}, metadata !7185), !dbg !7186 ; [debug line = 209:12] [debug variable = _412]
  %364 = load double* %_411, align 8, !dbg !7187  ; [#uses=1 type=double] [debug line = 209:34]
  %365 = fptosi double %364 to i32, !dbg !7187    ; [#uses=1 type=i32] [debug line = 209:34]
  store i32 %365, i32* %_412, align 4, !dbg !7187 ; [debug line = 209:34]
  call void @llvm.dbg.declare(metadata !{i32* %_413}, metadata !7188), !dbg !7189 ; [debug line = 210:12] [debug variable = _413]
  %366 = getelementptr inbounds [4 x i32]* %_p2_kernel1a1, i32 0, i64 3, !dbg !7190 ; [#uses=1 type=i32*] [debug line = 210:35]
  %367 = load i32* %366, align 4, !dbg !7190      ; [#uses=1 type=i32] [debug line = 210:35]
  store i32 %367, i32* %_413, align 4, !dbg !7190 ; [debug line = 210:35]
  call void @llvm.dbg.declare(metadata !{i32* %_414}, metadata !7191), !dbg !7192 ; [debug line = 211:12] [debug variable = _414]
  %368 = load i32* %_412, align 4, !dbg !7193     ; [#uses=1 type=i32] [debug line = 211:30]
  %369 = load i32* %_413, align 4, !dbg !7193     ; [#uses=1 type=i32] [debug line = 211:30]
  %370 = mul nsw i32 %368, %369, !dbg !7193       ; [#uses=1 type=i32] [debug line = 211:30]
  store i32 %370, i32* %_414, align 4, !dbg !7193 ; [debug line = 211:30]
  call void @llvm.dbg.declare(metadata !{i32* %_415}, metadata !7194), !dbg !7195 ; [debug line = 212:12] [debug variable = _415]
  %371 = load i32* %_407, align 4, !dbg !7196     ; [#uses=1 type=i32] [debug line = 212:30]
  %372 = load i32* %_414, align 4, !dbg !7196     ; [#uses=1 type=i32] [debug line = 212:30]
  %373 = add nsw i32 %371, %372, !dbg !7196       ; [#uses=1 type=i32] [debug line = 212:30]
  store i32 %373, i32* %_415, align 4, !dbg !7196 ; [debug line = 212:30]
  %374 = load i32* %_415, align 4, !dbg !7197     ; [#uses=1 type=i32] [debug line = 213:4]
  %375 = call i32* @_ZN7StencilIiLm1ELm1ELm1ELm1EEclEmmmm(%struct.Stencil.9* %_p2_mul1_stencil, i64 0, i64 0, i64 0, i64 0), !dbg !7197 ; [#uses=1 type=i32*] [debug line = 213:4]
  store i32 %374, i32* %375, !dbg !7197           ; [debug line = 213:4]
  call void @_ZN7StencilIiLm1ELm1ELm1ELm1EEcv13PackedStencilIiLm1ELm1ELm1ELm1EEEv(%struct.PackedStencil.8* sret %8, %struct.Stencil.9* %_p2_mul1_stencil), !dbg !7198 ; [debug line = 214:34]
  call void @_ZN3hls6streamI13PackedStencilIiLm1ELm1ELm1ELm1EEE5writeERKS2_(%"class.hls::stream.7"* %_p2_mul1_stencil_stream, %struct.PackedStencil.8* %8), !dbg !7198 ; [debug line = 214:34]
  call void (...)* @_ssdm_RegionEnd(i8* getelementptr inbounds ([12 x i8]* @.str5, i32 0, i32 0)) nounwind, !dbg !7199 ; [debug line = 216:3]
  br label %376, !dbg !7199                       ; [debug line = 216:3]

; <label>:376                                     ; preds = %249
  %377 = load i32* %_p2_mul1_x___scan_dim_0, align 4, !dbg !7200 ; [#uses=1 type=i32] [debug line = 162:77]
  %378 = add nsw i32 %377, 1, !dbg !7200          ; [#uses=1 type=i32] [debug line = 162:77]
  store i32 %378, i32* %_p2_mul1_x___scan_dim_0, align 4, !dbg !7200 ; [debug line = 162:77]
  br label %246, !dbg !7200                       ; [debug line = 162:77]

; <label>:379                                     ; preds = %246
  br label %380, !dbg !7201                       ; [debug line = 217:2]

; <label>:380                                     ; preds = %379
  %381 = load i32* %_p2_mul1_y___scan_dim_1, align 4, !dbg !7202 ; [#uses=1 type=i32] [debug line = 160:76]
  %382 = add nsw i32 %381, 1, !dbg !7202          ; [#uses=1 type=i32] [debug line = 160:76]
  store i32 %382, i32* %_p2_mul1_y___scan_dim_1, align 4, !dbg !7202 ; [debug line = 160:76]
  br label %242, !dbg !7202                       ; [debug line = 160:76]

; <label>:383                                     ; preds = %242
  call void @llvm.dbg.declare(metadata !{%"class.hls::stream.7"** %_p2_mul1_stencil_stream_to_hw_output}, metadata !7203), !dbg !7204 ; [debug line = 220:46] [debug variable = _p2_mul1_stencil_stream_to_hw_output]
  store %"class.hls::stream.7"* %_p2_mul1_stencil_stream, %"class.hls::stream.7"** %_p2_mul1_stencil_stream_to_hw_output, align 8, !dbg !7205 ; [debug line = 220:108]
  call void @llvm.dbg.declare(metadata !{i32* %_hw_output_y___scan_dim_1}, metadata !7206), !dbg !7208 ; [debug line = 223:11] [debug variable = _hw_output_y___scan_dim_1]
  store i32 0, i32* %_hw_output_y___scan_dim_1, align 4, !dbg !7209 ; [debug line = 223:40]
  br label %384, !dbg !7209                       ; [debug line = 223:40]

; <label>:384                                     ; preds = %441, %383
  %385 = load i32* %_hw_output_y___scan_dim_1, align 4, !dbg !7209 ; [#uses=1 type=i32] [debug line = 223:40]
  %386 = icmp slt i32 %385, 1077, !dbg !7209      ; [#uses=1 type=i1] [debug line = 223:40]
  br i1 %386, label %387, label %444, !dbg !7209  ; [debug line = 223:40]

; <label>:387                                     ; preds = %384
  call void @llvm.dbg.declare(metadata !{i32* %_hw_output_x___scan_dim_0}, metadata !7210), !dbg !7213 ; [debug line = 225:12] [debug variable = _hw_output_x___scan_dim_0]
  store i32 0, i32* %_hw_output_x___scan_dim_0, align 4, !dbg !7214 ; [debug line = 225:41]
  br label %388, !dbg !7214                       ; [debug line = 225:41]

; <label>:388                                     ; preds = %437, %387
  %389 = load i32* %_hw_output_x___scan_dim_0, align 4, !dbg !7214 ; [#uses=1 type=i32] [debug line = 225:41]
  %390 = icmp slt i32 %389, 1917, !dbg !7214      ; [#uses=1 type=i1] [debug line = 225:41]
  br i1 %390, label %391, label %440, !dbg !7214  ; [debug line = 225:41]

; <label>:391                                     ; preds = %388
  call void (...)* @_ssdm_RegionBegin(i8* getelementptr inbounds ([12 x i8]* @.str6, i32 0, i32 0)) nounwind, !dbg !7215 ; [debug line = 226:4]
  call void (...)* @_ssdm_op_SpecPipeline(i32 1, i32 1, i32 1, i32 0, i8* getelementptr inbounds ([1 x i8]* @.str, i32 0, i32 0)) nounwind, !dbg !7217 ; [debug line = 227:1]
  call void @llvm.dbg.declare(metadata !{%struct.Stencil.9* %_p2_mul1_stencil2}, metadata !7218), !dbg !7219 ; [debug line = 228:25] [debug variable = _p2_mul1_stencil]
  %392 = getelementptr inbounds %struct.Stencil.9* %_p2_mul1_stencil2, i32 0, i32 0, !dbg !7220 ; [#uses=1 type=[1 x [1 x [1 x [1 x i32]]]]*] [debug line = 229:1]
  %393 = getelementptr inbounds [1 x [1 x [1 x [1 x i32]]]]* %392, i32 0, i32 0, !dbg !7220 ; [#uses=1 type=[1 x [1 x [1 x i32]]]*] [debug line = 229:1]
  call void (...)* @_ssdm_SpecArrayPartition([1 x [1 x [1 x i32]]]* %393, i32 0, i8* getelementptr inbounds ([9 x i8]* @.str4, i32 0, i32 0), i32 0, i8* getelementptr inbounds ([1 x i8]* @.str, i32 0, i32 0)) nounwind, !dbg !7220 ; [debug line = 229:1]
  %394 = load %"class.hls::stream.7"** %_p2_mul1_stencil_stream_to_hw_output, align 8, !dbg !7221 ; [#uses=1 type=%"class.hls::stream.7"*] [debug line = 231:21]
  call void @_ZN3hls6streamI13PackedStencilIiLm1ELm1ELm1ELm1EEE4readEv(%struct.PackedStencil.8* sret %10, %"class.hls::stream.7"* %394), !dbg !7221 ; [debug line = 231:21]
  call void @_ZN13PackedStencilIiLm1ELm1ELm1ELm1EEcv7StencilIiLm1ELm1ELm1ELm1EEEv(%struct.Stencil.9* sret %9, %struct.PackedStencil.8* %10), !dbg !7221 ; [debug line = 231:21]
  %395 = bitcast %struct.Stencil.9* %_p2_mul1_stencil2 to i8*, !dbg !7221 ; [#uses=0 type=i8*] [debug line = 231:21]
  %396 = bitcast %struct.Stencil.9* %9 to i8*, !dbg !7221 ; [#uses=0 type=i8*] [debug line = 231:21]
  %397 = getelementptr inbounds %struct.Stencil.9* %_p2_mul1_stencil2, i32 0, i32 0, !dbg !7221 ; [#uses=1 type=[1 x [1 x [1 x [1 x i32]]]]*] [debug line = 231:21]
  %398 = getelementptr inbounds %struct.Stencil.9* %9, i32 0, i32 0, !dbg !7221 ; [#uses=1 type=[1 x [1 x [1 x [1 x i32]]]]*] [debug line = 231:21]
  %399 = getelementptr inbounds [1 x [1 x [1 x [1 x i32]]]]* %397, i32 0, i32 0, !dbg !7221 ; [#uses=1 type=[1 x [1 x [1 x i32]]]*] [debug line = 231:21]
  %400 = getelementptr inbounds [1 x [1 x [1 x [1 x i32]]]]* %398, i32 0, i32 0, !dbg !7221 ; [#uses=1 type=[1 x [1 x [1 x i32]]]*] [debug line = 231:21]
  %401 = getelementptr inbounds [1 x [1 x [1 x i32]]]* %399, i32 0, i32 0, !dbg !7221 ; [#uses=1 type=[1 x [1 x i32]]*] [debug line = 231:21]
  %402 = getelementptr inbounds [1 x [1 x [1 x i32]]]* %400, i32 0, i32 0, !dbg !7221 ; [#uses=1 type=[1 x [1 x i32]]*] [debug line = 231:21]
  %403 = getelementptr inbounds [1 x [1 x i32]]* %401, i32 0, i32 0, !dbg !7221 ; [#uses=1 type=[1 x i32]*] [debug line = 231:21]
  %404 = getelementptr inbounds [1 x [1 x i32]]* %402, i32 0, i32 0, !dbg !7221 ; [#uses=1 type=[1 x i32]*] [debug line = 231:21]
  %405 = getelementptr inbounds [1 x i32]* %403, i32 0, i32 0, !dbg !7221 ; [#uses=1 type=i32*] [debug line = 231:21]
  %406 = getelementptr inbounds [1 x i32]* %404, i32 0, i32 0, !dbg !7221 ; [#uses=1 type=i32*] [debug line = 231:21]
  %407 = load i32* %406, !dbg !7221               ; [#uses=1 type=i32] [debug line = 231:21]
  store i32 %407, i32* %405, !dbg !7221           ; [debug line = 231:21]
  call void @llvm.dbg.declare(metadata !{%struct.Stencil.9* %_hw_output_stencil}, metadata !7222), !dbg !7223 ; [debug line = 233:28] [debug variable = _hw_output_stencil]
  %408 = getelementptr inbounds %struct.Stencil.9* %_hw_output_stencil, i32 0, i32 0, !dbg !7224 ; [#uses=1 type=[1 x [1 x [1 x [1 x i32]]]]*] [debug line = 234:1]
  %409 = getelementptr inbounds [1 x [1 x [1 x [1 x i32]]]]* %408, i32 0, i32 0, !dbg !7224 ; [#uses=1 type=[1 x [1 x [1 x i32]]]*] [debug line = 234:1]
  call void (...)* @_ssdm_SpecArrayPartition([1 x [1 x [1 x i32]]]* %409, i32 0, i8* getelementptr inbounds ([9 x i8]* @.str4, i32 0, i32 0), i32 0, i8* getelementptr inbounds ([1 x i8]* @.str, i32 0, i32 0)) nounwind, !dbg !7224 ; [debug line = 234:1]
  call void @llvm.dbg.declare(metadata !{i32* %_416}, metadata !7225), !dbg !7226 ; [debug line = 236:10] [debug variable = _416]
  %410 = call i32* @_ZN7StencilIiLm1ELm1ELm1ELm1EEclEmmmm(%struct.Stencil.9* %_p2_mul1_stencil2, i64 0, i64 0, i64 0, i64 0), !dbg !7227 ; [#uses=1 type=i32*] [debug line = 236:17]
  %411 = load i32* %410, !dbg !7227               ; [#uses=1 type=i32] [debug line = 236:17]
  store i32 %411, i32* %_416, align 4, !dbg !7227 ; [debug line = 236:17]
  call void @llvm.dbg.declare(metadata !{float* %_417}, metadata !7228), !dbg !7229 ; [debug line = 237:10] [debug variable = _417]
  %412 = load i32* %_416, align 4, !dbg !7230     ; [#uses=1 type=i32] [debug line = 237:30]
  %413 = sitofp i32 %412 to float, !dbg !7230     ; [#uses=1 type=float] [debug line = 237:30]
  store float %413, float* %_417, align 4, !dbg !7230 ; [debug line = 237:30]
  call void @llvm.dbg.declare(metadata !{double* %_418}, metadata !7231), !dbg !7232 ; [debug line = 238:11] [debug variable = _418]
  %414 = load float* %_417, align 4, !dbg !7233   ; [#uses=1 type=float] [debug line = 238:32]
  %415 = fpext float %414 to double, !dbg !7233   ; [#uses=1 type=double] [debug line = 238:32]
  store double %415, double* %_418, align 8, !dbg !7233 ; [debug line = 238:32]
  call void @llvm.dbg.declare(metadata !{double* %_419}, metadata !7234), !dbg !7235 ; [debug line = 239:11] [debug variable = _419]
  %416 = load double* %_418, align 8, !dbg !7236  ; [#uses=1 type=double] [debug line = 239:74]
  %417 = call float @_Z15float_from_bitsj(i32 1040187392), !dbg !7237 ; [#uses=1 type=float] [debug line = 239:34]
  %418 = fpext float %417 to double, !dbg !7237   ; [#uses=1 type=double] [debug line = 239:34]
  %419 = fmul double %416, %418, !dbg !7237       ; [#uses=1 type=double] [debug line = 239:34]
  store double %419, double* %_419, align 8, !dbg !7237 ; [debug line = 239:34]
  call void @llvm.dbg.declare(metadata !{i32* %_420}, metadata !7238), !dbg !7239 ; [debug line = 240:13] [debug variable = _420]
  %420 = load double* %_419, align 8, !dbg !7240  ; [#uses=1 type=double] [debug line = 240:36]
  %421 = fptoui double %420 to i32, !dbg !7240    ; [#uses=1 type=i32] [debug line = 240:36]
  store i32 %421, i32* %_420, align 4, !dbg !7240 ; [debug line = 240:36]
  %422 = load i32* %_420, align 4, !dbg !7241     ; [#uses=1 type=i32] [debug line = 241:4]
  %423 = call i32* @_ZN7StencilIjLm1ELm1ELm1ELm1EEclEmmmm(%struct.Stencil.9* %_hw_output_stencil, i64 0, i64 0, i64 0, i64 0), !dbg !7241 ; [#uses=1 type=i32*] [debug line = 241:4]
  store i32 %422, i32* %423, !dbg !7241           ; [debug line = 241:4]
  call void @llvm.dbg.declare(metadata !{%struct.AxiPackedStencil* %_hw_output_stencil_packed}, metadata !7242), !dbg !7243 ; [debug line = 242:37] [debug variable = _hw_output_stencil_packed]
  call void @_ZN7StencilIjLm1ELm1ELm1ELm1EEcv16AxiPackedStencilIjLm1ELm1ELm1ELm1EEEv(%struct.AxiPackedStencil* sret %_hw_output_stencil_packed, %struct.Stencil.9* %_hw_output_stencil), !dbg !7244 ; [debug line = 242:65]
  %424 = load i32* %_hw_output_x___scan_dim_0, align 4, !dbg !7245 ; [#uses=1 type=i32] [debug line = 243:4]
  %425 = icmp eq i32 %424, 1916, !dbg !7245       ; [#uses=1 type=i1] [debug line = 243:4]
  br i1 %425, label %426, label %432, !dbg !7245  ; [debug line = 243:4]

; <label>:426                                     ; preds = %391
  %427 = load i32* %_hw_output_y___scan_dim_1, align 4, !dbg !7245 ; [#uses=1 type=i32] [debug line = 243:4]
  %428 = icmp eq i32 %427, 1076, !dbg !7245       ; [#uses=1 type=i1] [debug line = 243:4]
  br i1 %428, label %429, label %432, !dbg !7245  ; [debug line = 243:4]

; <label>:429                                     ; preds = %426
  %430 = getelementptr inbounds %struct.AxiPackedStencil* %_hw_output_stencil_packed, i32 0, i32 1, !dbg !7246 ; [#uses=1 type=%struct.ap_uint.0*] [debug line = 244:5]
  call void @_ZN7ap_uintILi1EEC1Ei(%struct.ap_uint.0* %11, i32 1), !dbg !7246 ; [debug line = 244:5]
  %431 = call %struct.ap_uint.0* @_ZN7ap_uintILi1EEaSERKS0_(%struct.ap_uint.0* %430, %struct.ap_uint.0* %11), !dbg !7246 ; [#uses=0 type=%struct.ap_uint.0*] [debug line = 244:5]
  br label %435, !dbg !7248                       ; [debug line = 245:4]

; <label>:432                                     ; preds = %426, %391
  %433 = getelementptr inbounds %struct.AxiPackedStencil* %_hw_output_stencil_packed, i32 0, i32 1, !dbg !7249 ; [#uses=1 type=%struct.ap_uint.0*] [debug line = 246:5]
  call void @_ZN7ap_uintILi1EEC1Ei(%struct.ap_uint.0* %12, i32 0), !dbg !7249 ; [debug line = 246:5]
  %434 = call %struct.ap_uint.0* @_ZN7ap_uintILi1EEaSERKS0_(%struct.ap_uint.0* %433, %struct.ap_uint.0* %12), !dbg !7249 ; [#uses=0 type=%struct.ap_uint.0*] [debug line = 246:5]
  br label %435

; <label>:435                                     ; preds = %432, %429
  %436 = load %"class.hls::stream"** %_hw_output_stencil_stream, align 8, !dbg !7251 ; [#uses=1 type=%"class.hls::stream"*] [debug line = 248:4]
  call void @_ZN3hls6streamI16AxiPackedStencilIjLm1ELm1ELm1ELm1EEE5writeERKS2_(%"class.hls::stream"* %436, %struct.AxiPackedStencil* %_hw_output_stencil_packed), !dbg !7251 ; [debug line = 248:4]
  call void (...)* @_ssdm_RegionEnd(i8* getelementptr inbounds ([12 x i8]* @.str6, i32 0, i32 0)) nounwind, !dbg !7252 ; [debug line = 250:3]
  br label %437, !dbg !7252                       ; [debug line = 250:3]

; <label>:437                                     ; preds = %435
  %438 = load i32* %_hw_output_x___scan_dim_0, align 4, !dbg !7253 ; [#uses=1 type=i32] [debug line = 225:81]
  %439 = add nsw i32 %438, 1, !dbg !7253          ; [#uses=1 type=i32] [debug line = 225:81]
  store i32 %439, i32* %_hw_output_x___scan_dim_0, align 4, !dbg !7253 ; [debug line = 225:81]
  br label %388, !dbg !7253                       ; [debug line = 225:81]

; <label>:440                                     ; preds = %388
  br label %441, !dbg !7254                       ; [debug line = 251:2]

; <label>:441                                     ; preds = %440
  %442 = load i32* %_hw_output_y___scan_dim_1, align 4, !dbg !7255 ; [#uses=1 type=i32] [debug line = 223:80]
  %443 = add nsw i32 %442, 1, !dbg !7255          ; [#uses=1 type=i32] [debug line = 223:80]
  store i32 %443, i32* %_hw_output_y___scan_dim_1, align 4, !dbg !7255 ; [debug line = 223:80]
  br label %384, !dbg !7255                       ; [debug line = 223:80]

; <label>:444                                     ; preds = %384
  ret void, !dbg !7256                            ; [debug line = 252:1]
}

; [#uses=617]
declare void @llvm.dbg.declare(metadata, metadata) nounwind readnone

; [#uses=6]
declare void @_ssdm_op_SpecDataflowPipeline(...) nounwind

; [#uses=1]
declare void @_ssdm_InlineRegion(...) nounwind

; [#uses=2]
declare void @_ssdm_op_SpecInterface(...) nounwind

; [#uses=1]
define linkonce_odr void @_ZN3hls6streamI13PackedStencilIjLm3ELm3ELm1ELm1EEEC1Ev(%"class.hls::stream.3"* %this) unnamed_addr nounwind uwtable inlinehint alwaysinline align 2 {
  %1 = alloca %"class.hls::stream.3"*, align 8    ; [#uses=2 type=%"class.hls::stream.3"**]
  store %"class.hls::stream.3"* %this, %"class.hls::stream.3"** %1, align 8
  call void @llvm.dbg.declare(metadata !{%"class.hls::stream.3"** %1}, metadata !7257), !dbg !7259 ; [debug line = 83:43] [debug variable = this]
  %2 = load %"class.hls::stream.3"** %1           ; [#uses=1 type=%"class.hls::stream.3"*]
  call void @_ZN3hls6streamI13PackedStencilIjLm3ELm3ELm1ELm1EEEC2Ev(%"class.hls::stream.3"* %2), !dbg !7260 ; [debug line = 84:5]
  ret void, !dbg !7260                            ; [debug line = 84:5]
}

; [#uses=7]
declare void @_ssdm_SpecStream(...) nounwind

; [#uses=7]
declare void @_ssdm_op_SpecResource(...) nounwind

; [#uses=1]
define linkonce_odr void @_Z10linebufferILm1920ELm1080ELm1ELm1ELm1ELm1ELm1ELm1ELm3ELm3ELm1ELm1EjEvRN3hls6streamI16AxiPackedStencilIT11_XT3_EXT4_EXT5_EXT6_EEEERNS1_I13PackedStencilIS3_XT7_EXT8_EXT9_EXT10_EEEE(%"class.hls::stream"* %in_axi_stream, %"class.hls::stream.3"* %out_stream) nounwind uwtable {
  %1 = alloca %"class.hls::stream"*, align 8      ; [#uses=2 type=%"class.hls::stream"**]
  %2 = alloca %"class.hls::stream.3"*, align 8    ; [#uses=2 type=%"class.hls::stream.3"**]
  %in_stream = alloca %"class.hls::stream.7", align 4 ; [#uses=5 type=%"class.hls::stream.7"*]
  %idx_3 = alloca i64, align 8                    ; [#uses=4 type=i64*]
  %idx_2 = alloca i64, align 8                    ; [#uses=4 type=i64*]
  %idx_1 = alloca i64, align 8                    ; [#uses=4 type=i64*]
  %idx_0 = alloca i64, align 8                    ; [#uses=4 type=i64*]
  %3 = alloca %struct.PackedStencil.8, align 4    ; [#uses=2 type=%struct.PackedStencil.8*]
  %4 = alloca %struct.AxiPackedStencil, align 4   ; [#uses=2 type=%struct.AxiPackedStencil*]
  store %"class.hls::stream"* %in_axi_stream, %"class.hls::stream"** %1, align 8
  call void @llvm.dbg.declare(metadata !{%"class.hls::stream"** %1}, metadata !7261), !dbg !7262 ; [debug line = 537:99] [debug variable = in_axi_stream]
  store %"class.hls::stream.3"* %out_stream, %"class.hls::stream.3"** %2, align 8
  call void @llvm.dbg.declare(metadata !{%"class.hls::stream.3"** %2}, metadata !7263), !dbg !7264 ; [debug line = 538:86] [debug variable = out_stream]
  call void (...)* @_ssdm_InlineSelf(i32 2, i8* getelementptr inbounds ([1 x i8]* @.str, i32 0, i32 0)) nounwind, !dbg !7265 ; [debug line = 543:1]
  call void (...)* @_ssdm_op_SpecDataflowPipeline(i32 -1, i8* getelementptr inbounds ([1 x i8]* @.str, i32 0, i32 0)) nounwind, !dbg !7267 ; [debug line = 544:1]
  call void @llvm.dbg.declare(metadata !{%"class.hls::stream.7"* %in_stream}, metadata !7268), !dbg !7269 ; [debug line = 545:80] [debug variable = in_stream]
  call void @_ZN3hls6streamI13PackedStencilIjLm1ELm1ELm1ELm1EEEC1Ev(%"class.hls::stream.7"* %in_stream), !dbg !7270 ; [debug line = 545:89]
  call void (...)* @_ssdm_SpecStream(%"class.hls::stream.7"* %in_stream, i32 0, i32 1, i8* getelementptr inbounds ([1 x i8]* @.str, i32 0, i32 0)) nounwind, !dbg !7271 ; [debug line = 546:1]
  call void (...)* @_ssdm_op_SpecResource(%"class.hls::stream.7"* %in_stream, i8* getelementptr inbounds ([1 x i8]* @.str, i32 0, i32 0), i8* getelementptr inbounds ([9 x i8]* @.str2, i32 0, i32 0), i8* getelementptr inbounds ([1 x i8]* @.str, i32 0, i32 0), i32 -1, i8* getelementptr inbounds ([1 x i8]* @.str, i32 0, i32 0), i8* getelementptr inbounds ([1 x i8]* @.str, i32 0, i32 0), i8* getelementptr inbounds ([1 x i8]* @.str, i32 0, i32 0), i8* getelementptr inbounds ([1 x i8]* @.str, i32 0, i32 0), i8* getelementptr inbounds ([1 x i8]* @.str, i32 0, i32 0)) nounwind, !dbg !7272 ; [debug line = 547:1]
  call void @llvm.dbg.declare(metadata !{i64* %idx_3}, metadata !7273), !dbg !7275 ; [debug line = 549:14] [debug variable = idx_3]
  store i64 0, i64* %idx_3, align 8, !dbg !7276   ; [debug line = 549:23]
  br label %5, !dbg !7276                         ; [debug line = 549:23]

; <label>:5                                       ; preds = %34, %0
  %6 = load i64* %idx_3, align 8, !dbg !7276      ; [#uses=1 type=i64] [debug line = 549:23]
  %7 = icmp ult i64 %6, 1, !dbg !7276             ; [#uses=1 type=i1] [debug line = 549:23]
  br i1 %7, label %8, label %37, !dbg !7276       ; [debug line = 549:23]

; <label>:8                                       ; preds = %5
  call void @llvm.dbg.declare(metadata !{i64* %idx_2}, metadata !7277), !dbg !7279 ; [debug line = 550:17] [debug variable = idx_2]
  store i64 0, i64* %idx_2, align 8, !dbg !7280   ; [debug line = 550:26]
  br label %9, !dbg !7280                         ; [debug line = 550:26]

; <label>:9                                       ; preds = %30, %8
  %10 = load i64* %idx_2, align 8, !dbg !7280     ; [#uses=1 type=i64] [debug line = 550:26]
  %11 = icmp ult i64 %10, 1, !dbg !7280           ; [#uses=1 type=i1] [debug line = 550:26]
  br i1 %11, label %12, label %33, !dbg !7280     ; [debug line = 550:26]

; <label>:12                                      ; preds = %9
  call void @llvm.dbg.declare(metadata !{i64* %idx_1}, metadata !7281), !dbg !7283 ; [debug line = 551:17] [debug variable = idx_1]
  store i64 0, i64* %idx_1, align 8, !dbg !7284   ; [debug line = 551:26]
  br label %13, !dbg !7284                        ; [debug line = 551:26]

; <label>:13                                      ; preds = %26, %12
  %14 = load i64* %idx_1, align 8, !dbg !7284     ; [#uses=1 type=i64] [debug line = 551:26]
  %15 = icmp ult i64 %14, 1080, !dbg !7284        ; [#uses=1 type=i1] [debug line = 551:26]
  br i1 %15, label %16, label %29, !dbg !7284     ; [debug line = 551:26]

; <label>:16                                      ; preds = %13
  call void @llvm.dbg.declare(metadata !{i64* %idx_0}, metadata !7285), !dbg !7287 ; [debug line = 552:17] [debug variable = idx_0]
  store i64 0, i64* %idx_0, align 8, !dbg !7288   ; [debug line = 552:26]
  br label %17, !dbg !7288                        ; [debug line = 552:26]

; <label>:17                                      ; preds = %22, %16
  %18 = load i64* %idx_0, align 8, !dbg !7288     ; [#uses=1 type=i64] [debug line = 552:26]
  %19 = icmp ult i64 %18, 1920, !dbg !7288        ; [#uses=1 type=i1] [debug line = 552:26]
  br i1 %19, label %20, label %25, !dbg !7288     ; [debug line = 552:26]

; <label>:20                                      ; preds = %17
  call void (...)* @_ssdm_RegionBegin(i8* getelementptr inbounds ([12 x i8]* @.str35, i32 0, i32 0)) nounwind, !dbg !7289 ; [debug line = 554:3]
  call void (...)* @_ssdm_op_SpecPipeline(i32 1, i32 1, i32 1, i32 0, i8* getelementptr inbounds ([1 x i8]* @.str, i32 0, i32 0)) nounwind, !dbg !7291 ; [debug line = 553:1]
  %21 = load %"class.hls::stream"** %1, align 8, !dbg !7292 ; [#uses=1 type=%"class.hls::stream"*] [debug line = 554:18]
  call void @_ZN3hls6streamI16AxiPackedStencilIjLm1ELm1ELm1ELm1EEE4readEv(%struct.AxiPackedStencil* sret %4, %"class.hls::stream"* %21), !dbg !7292 ; [debug line = 554:18]
  call void @_ZN16AxiPackedStencilIjLm1ELm1ELm1ELm1EEcv13PackedStencilIjLm1ELm1ELm1ELm1EEEv(%struct.PackedStencil.8* sret %3, %struct.AxiPackedStencil* %4), !dbg !7292 ; [debug line = 554:18]
  call void @_ZN3hls6streamI13PackedStencilIjLm1ELm1ELm1ELm1EEE5writeERKS2_(%"class.hls::stream.7"* %in_stream, %struct.PackedStencil.8* %3), !dbg !7292 ; [debug line = 554:18]
  call void (...)* @_ssdm_RegionEnd(i8* getelementptr inbounds ([12 x i8]* @.str35, i32 0, i32 0)) nounwind, !dbg !7293 ; [debug line = 554:38]
  br label %22, !dbg !7293                        ; [debug line = 554:38]

; <label>:22                                      ; preds = %20
  %23 = load i64* %idx_0, align 8, !dbg !7294     ; [#uses=1 type=i64] [debug line = 552:64]
  %24 = add i64 %23, 1, !dbg !7294                ; [#uses=1 type=i64] [debug line = 552:64]
  store i64 %24, i64* %idx_0, align 8, !dbg !7294 ; [debug line = 552:64]
  br label %17, !dbg !7294                        ; [debug line = 552:64]

; <label>:25                                      ; preds = %17
  br label %26, !dbg !7295                        ; [debug line = 554:38]

; <label>:26                                      ; preds = %25
  %27 = load i64* %idx_1, align 8, !dbg !7296     ; [#uses=1 type=i64] [debug line = 551:64]
  %28 = add i64 %27, 1, !dbg !7296                ; [#uses=1 type=i64] [debug line = 551:64]
  store i64 %28, i64* %idx_1, align 8, !dbg !7296 ; [debug line = 551:64]
  br label %13, !dbg !7296                        ; [debug line = 551:64]

; <label>:29                                      ; preds = %13
  br label %30, !dbg !7297                        ; [debug line = 554:38]

; <label>:30                                      ; preds = %29
  %31 = load i64* %idx_2, align 8, !dbg !7298     ; [#uses=1 type=i64] [debug line = 550:64]
  %32 = add i64 %31, 1, !dbg !7298                ; [#uses=1 type=i64] [debug line = 550:64]
  store i64 %32, i64* %idx_2, align 8, !dbg !7298 ; [debug line = 550:64]
  br label %9, !dbg !7298                         ; [debug line = 550:64]

; <label>:33                                      ; preds = %9
  br label %34, !dbg !7299                        ; [debug line = 554:38]

; <label>:34                                      ; preds = %33
  %35 = load i64* %idx_3, align 8, !dbg !7300     ; [#uses=1 type=i64] [debug line = 549:61]
  %36 = add i64 %35, 1, !dbg !7300                ; [#uses=1 type=i64] [debug line = 549:61]
  store i64 %36, i64* %idx_3, align 8, !dbg !7300 ; [debug line = 549:61]
  br label %5, !dbg !7300                         ; [debug line = 549:61]

; <label>:37                                      ; preds = %5
  %38 = load %"class.hls::stream.3"** %2, align 8, !dbg !7301 ; [#uses=1 type=%"class.hls::stream.3"*] [debug line = 556:5]
  call void @_Z10linebufferILm1920ELm1080ELm1ELm1ELm1ELm1ELm1ELm1ELm3ELm3ELm1ELm1EjEvRN3hls6streamI13PackedStencilIT11_XT3_EXT4_EXT5_EXT6_EEEERNS1_IS2_IS3_XT7_EXT8_EXT9_EXT10_EEEE(%"class.hls::stream.7"* %in_stream, %"class.hls::stream.3"* %38), !dbg !7301 ; [debug line = 556:5]
  ret void, !dbg !7302                            ; [debug line = 557:1]
}

; [#uses=2]
define linkonce_odr void @_ZN3hls6streamI13PackedStencilIiLm1ELm1ELm1ELm1EEEC1Ev(%"class.hls::stream.7"* %this) unnamed_addr nounwind uwtable inlinehint alwaysinline align 2 {
  %1 = alloca %"class.hls::stream.7"*, align 8    ; [#uses=2 type=%"class.hls::stream.7"**]
  store %"class.hls::stream.7"* %this, %"class.hls::stream.7"** %1, align 8
  call void @llvm.dbg.declare(metadata !{%"class.hls::stream.7"** %1}, metadata !7303), !dbg !7305 ; [debug line = 83:43] [debug variable = this]
  %2 = load %"class.hls::stream.7"** %1           ; [#uses=1 type=%"class.hls::stream.7"*]
  call void @_ZN3hls6streamI13PackedStencilIiLm1ELm1ELm1ELm1EEEC2Ev(%"class.hls::stream.7"* %2), !dbg !7306 ; [debug line = 84:5]
  ret void, !dbg !7306                            ; [debug line = 84:5]
}

; [#uses=36]
declare void @_ssdm_RegionBegin(...) nounwind

; [#uses=8]
declare void @_ssdm_op_SpecPipeline(...) nounwind

; [#uses=13]
declare void @_ssdm_SpecArrayPartition(...) nounwind

; [#uses=1]
define linkonce_odr void @_ZN3hls6streamI13PackedStencilIjLm3ELm3ELm1ELm1EEE4readEv(%struct.PackedStencil* noalias sret %agg.result, %"class.hls::stream.3"* %this) nounwind uwtable inlinehint alwaysinline align 2 {
  %1 = alloca %"class.hls::stream.3"*, align 8    ; [#uses=2 type=%"class.hls::stream.3"**]
  store %"class.hls::stream.3"* %this, %"class.hls::stream.3"** %1, align 8
  call void @llvm.dbg.declare(metadata !{%"class.hls::stream.3"** %1}, metadata !7307), !dbg !7308 ; [debug line = 129:56] [debug variable = this]
  %2 = load %"class.hls::stream.3"** %1           ; [#uses=1 type=%"class.hls::stream.3"*]
  call void @llvm.dbg.declare(metadata !{%struct.PackedStencil* %agg.result}, metadata !7309), !dbg !7311 ; [debug line = 130:22] [debug variable = tmp]
  call void @_ZN13PackedStencilIjLm3ELm3ELm1ELm1EEC1Ev(%struct.PackedStencil* %agg.result), !dbg !7312 ; [debug line = 130:25]
  %3 = getelementptr inbounds %"class.hls::stream.3"* %2, i32 0, i32 0, !dbg !7313 ; [#uses=1 type=%struct.PackedStencil*] [debug line = 131:9]
  call void (...)* @_ssdm_StreamRead(%struct.PackedStencil* %3, %struct.PackedStencil* %agg.result) nounwind, !dbg !7313 ; [debug line = 131:9]
  ret void, !dbg !7314                            ; [debug line = 132:9]
}

; [#uses=1]
define linkonce_odr void @_ZN13PackedStencilIjLm3ELm3ELm1ELm1EEcv7StencilIjLm3ELm3ELm1ELm1EEEv(%struct.Stencil* noalias sret %agg.result, %struct.PackedStencil* %this) nounwind uwtable align 2 {
  %1 = alloca %struct.PackedStencil*, align 8     ; [#uses=2 type=%struct.PackedStencil**]
  %idx_3 = alloca i64, align 8                    ; [#uses=6 type=i64*]
  %idx_2 = alloca i64, align 8                    ; [#uses=6 type=i64*]
  %idx_1 = alloca i64, align 8                    ; [#uses=6 type=i64*]
  %idx_0 = alloca i64, align 8                    ; [#uses=6 type=i64*]
  %temp = alloca %struct.ap_uint, align 4         ; [#uses=2 type=%struct.ap_uint*]
  %2 = alloca %struct.ap_range_ref.34, align 8    ; [#uses=2 type=%struct.ap_range_ref.34*]
  store %struct.PackedStencil* %this, %struct.PackedStencil** %1, align 8
  call void @llvm.dbg.declare(metadata !{%struct.PackedStencil** %1}, metadata !7315), !dbg !7317 ; [debug line = 109:5] [debug variable = this]
  %3 = load %struct.PackedStencil** %1            ; [#uses=1 type=%struct.PackedStencil*]
  call void (...)* @_ssdm_InlineSelf(i32 0, i8* getelementptr inbounds ([1 x i8]* @.str, i32 0, i32 0)) nounwind, !dbg !7318 ; [debug line = 110:1]
  call void @llvm.dbg.declare(metadata !{%struct.Stencil* %agg.result}, metadata !7320), !dbg !7321 ; [debug line = 111:53] [debug variable = res]
  %4 = getelementptr inbounds %struct.Stencil* %agg.result, i32 0, i32 0, !dbg !7322 ; [#uses=1 type=[1 x [1 x [3 x [3 x i32]]]]*] [debug line = 112:1]
  %5 = getelementptr inbounds [1 x [1 x [3 x [3 x i32]]]]* %4, i32 0, i32 0, !dbg !7322 ; [#uses=1 type=[1 x [3 x [3 x i32]]]*] [debug line = 112:1]
  call void (...)* @_ssdm_SpecArrayPartition([1 x [3 x [3 x i32]]]* %5, i32 0, i8* getelementptr inbounds ([9 x i8]* @.str4, i32 0, i32 0), i32 0, i8* getelementptr inbounds ([1 x i8]* @.str, i32 0, i32 0)) nounwind, !dbg !7322 ; [debug line = 112:1]
  call void @llvm.dbg.declare(metadata !{i64* %idx_3}, metadata !7323), !dbg !7325 ; [debug line = 114:13] [debug variable = idx_3]
  store i64 0, i64* %idx_3, align 8, !dbg !7326   ; [debug line = 114:22]
  br label %6, !dbg !7326                         ; [debug line = 114:22]

; <label>:6                                       ; preds = %47, %0
  %7 = load i64* %idx_3, align 8, !dbg !7326      ; [#uses=1 type=i64] [debug line = 114:22]
  %8 = icmp ult i64 %7, 1, !dbg !7326             ; [#uses=1 type=i1] [debug line = 114:22]
  br i1 %8, label %9, label %50, !dbg !7326       ; [debug line = 114:22]

; <label>:9                                       ; preds = %6
  call void (...)* @_ssdm_RegionBegin(i8* getelementptr inbounds ([13 x i8]* @.str31, i32 0, i32 0)) nounwind, !dbg !7327 ; [debug line = 116:3]
  call void (...)* @_ssdm_Unroll(i32 0, i32 0, i32 0, i8* getelementptr inbounds ([1 x i8]* @.str, i32 0, i32 0)) nounwind, !dbg !7329 ; [debug line = 115:1]
  call void @llvm.dbg.declare(metadata !{i64* %idx_2}, metadata !7330), !dbg !7332 ; [debug line = 116:13] [debug variable = idx_2]
  store i64 0, i64* %idx_2, align 8, !dbg !7333   ; [debug line = 116:22]
  br label %10, !dbg !7333                        ; [debug line = 116:22]

; <label>:10                                      ; preds = %43, %9
  %11 = load i64* %idx_2, align 8, !dbg !7333     ; [#uses=1 type=i64] [debug line = 116:22]
  %12 = icmp ult i64 %11, 1, !dbg !7333           ; [#uses=1 type=i1] [debug line = 116:22]
  br i1 %12, label %13, label %46, !dbg !7333     ; [debug line = 116:22]

; <label>:13                                      ; preds = %10
  call void (...)* @_ssdm_RegionBegin(i8* getelementptr inbounds ([12 x i8]* @.str32, i32 0, i32 0)) nounwind, !dbg !7334 ; [debug line = 118:3]
  call void (...)* @_ssdm_Unroll(i32 0, i32 0, i32 0, i8* getelementptr inbounds ([1 x i8]* @.str, i32 0, i32 0)) nounwind, !dbg !7336 ; [debug line = 117:1]
  call void @llvm.dbg.declare(metadata !{i64* %idx_1}, metadata !7337), !dbg !7339 ; [debug line = 118:13] [debug variable = idx_1]
  store i64 0, i64* %idx_1, align 8, !dbg !7340   ; [debug line = 118:22]
  br label %14, !dbg !7340                        ; [debug line = 118:22]

; <label>:14                                      ; preds = %39, %13
  %15 = load i64* %idx_1, align 8, !dbg !7340     ; [#uses=1 type=i64] [debug line = 118:22]
  %16 = icmp ult i64 %15, 3, !dbg !7340           ; [#uses=1 type=i1] [debug line = 118:22]
  br i1 %16, label %17, label %42, !dbg !7340     ; [debug line = 118:22]

; <label>:17                                      ; preds = %14
  call void (...)* @_ssdm_RegionBegin(i8* getelementptr inbounds ([13 x i8]* @.str33, i32 0, i32 0)) nounwind, !dbg !7341 ; [debug line = 120:3]
  call void (...)* @_ssdm_Unroll(i32 0, i32 0, i32 0, i8* getelementptr inbounds ([1 x i8]* @.str, i32 0, i32 0)) nounwind, !dbg !7343 ; [debug line = 119:1]
  call void @llvm.dbg.declare(metadata !{i64* %idx_0}, metadata !7344), !dbg !7346 ; [debug line = 120:13] [debug variable = idx_0]
  store i64 0, i64* %idx_0, align 8, !dbg !7347   ; [debug line = 120:22]
  br label %18, !dbg !7347                        ; [debug line = 120:22]

; <label>:18                                      ; preds = %35, %17
  %19 = load i64* %idx_0, align 8, !dbg !7347     ; [#uses=1 type=i64] [debug line = 120:22]
  %20 = icmp ult i64 %19, 3, !dbg !7347           ; [#uses=1 type=i1] [debug line = 120:22]
  br i1 %20, label %21, label %38, !dbg !7347     ; [debug line = 120:22]

; <label>:21                                      ; preds = %18
  call void (...)* @_ssdm_RegionBegin(i8* getelementptr inbounds ([13 x i8]* @.str34, i32 0, i32 0)) nounwind, !dbg !7348 ; [debug line = 120:52]
  call void (...)* @_ssdm_Unroll(i32 0, i32 0, i32 0, i8* getelementptr inbounds ([1 x i8]* @.str, i32 0, i32 0)) nounwind, !dbg !7350 ; [debug line = 121:1]
  call void @llvm.dbg.declare(metadata !{%struct.ap_uint* %temp}, metadata !7351), !dbg !7352 ; [debug line = 122:25] [debug variable = temp]
  %22 = load i64* %idx_0, align 8, !dbg !7353     ; [#uses=1 type=i64] [debug line = 122:32]
  %23 = load i64* %idx_1, align 8, !dbg !7353     ; [#uses=1 type=i64] [debug line = 122:32]
  %24 = load i64* %idx_2, align 8, !dbg !7353     ; [#uses=1 type=i64] [debug line = 122:32]
  %25 = load i64* %idx_3, align 8, !dbg !7353     ; [#uses=1 type=i64] [debug line = 122:32]
  call void @_ZN13PackedStencilIjLm3ELm3ELm1ELm1EEclEmmmm(%struct.ap_range_ref.34* sret %2, %struct.PackedStencil* %3, i64 %22, i64 %23, i64 %24, i64 %25), !dbg !7353 ; [debug line = 122:32]
  call void @_ZN7ap_uintILi32EEC1ILi288ELb0EEERK12ap_range_refIXT_EXT0_EE(%struct.ap_uint* %temp, %struct.ap_range_ref.34* %2), !dbg !7353 ; [debug line = 122:32]
  %26 = load i64* %idx_0, align 8, !dbg !7354     ; [#uses=1 type=i64] [debug line = 123:13]
  %27 = load i64* %idx_1, align 8, !dbg !7354     ; [#uses=1 type=i64] [debug line = 123:13]
  %28 = load i64* %idx_2, align 8, !dbg !7354     ; [#uses=1 type=i64] [debug line = 123:13]
  %29 = load i64* %idx_3, align 8, !dbg !7354     ; [#uses=1 type=i64] [debug line = 123:13]
  %30 = getelementptr inbounds %struct.Stencil* %agg.result, i32 0, i32 0, !dbg !7354 ; [#uses=1 type=[1 x [1 x [3 x [3 x i32]]]]*] [debug line = 123:13]
  %31 = getelementptr inbounds [1 x [1 x [3 x [3 x i32]]]]* %30, i32 0, i64 %29, !dbg !7354 ; [#uses=1 type=[1 x [3 x [3 x i32]]]*] [debug line = 123:13]
  %32 = getelementptr inbounds [1 x [3 x [3 x i32]]]* %31, i32 0, i64 %28, !dbg !7354 ; [#uses=1 type=[3 x [3 x i32]]*] [debug line = 123:13]
  %33 = getelementptr inbounds [3 x [3 x i32]]* %32, i32 0, i64 %27, !dbg !7354 ; [#uses=1 type=[3 x i32]*] [debug line = 123:13]
  %34 = getelementptr inbounds [3 x i32]* %33, i32 0, i64 %26, !dbg !7354 ; [#uses=1 type=i32*] [debug line = 123:13]
  call void @_Z15bitcast_to_typeIjLi32EEvR7ap_uintIXT0_EERT_(%struct.ap_uint* %temp, i32* %34), !dbg !7354 ; [debug line = 123:13]
  call void (...)* @_ssdm_RegionEnd(i8* getelementptr inbounds ([13 x i8]* @.str34, i32 0, i32 0)) nounwind, !dbg !7355 ; [debug line = 124:9]
  br label %35, !dbg !7355                        ; [debug line = 124:9]

; <label>:35                                      ; preds = %21
  %36 = load i64* %idx_0, align 8, !dbg !7356     ; [#uses=1 type=i64] [debug line = 120:42]
  %37 = add i64 %36, 1, !dbg !7356                ; [#uses=1 type=i64] [debug line = 120:42]
  store i64 %37, i64* %idx_0, align 8, !dbg !7356 ; [debug line = 120:42]
  br label %18, !dbg !7356                        ; [debug line = 120:42]

; <label>:38                                      ; preds = %18
  call void (...)* @_ssdm_RegionEnd(i8* getelementptr inbounds ([13 x i8]* @.str33, i32 0, i32 0)) nounwind, !dbg !7357 ; [debug line = 124:9]
  br label %39, !dbg !7357                        ; [debug line = 124:9]

; <label>:39                                      ; preds = %38
  %40 = load i64* %idx_1, align 8, !dbg !7358     ; [#uses=1 type=i64] [debug line = 118:42]
  %41 = add i64 %40, 1, !dbg !7358                ; [#uses=1 type=i64] [debug line = 118:42]
  store i64 %41, i64* %idx_1, align 8, !dbg !7358 ; [debug line = 118:42]
  br label %14, !dbg !7358                        ; [debug line = 118:42]

; <label>:42                                      ; preds = %14
  call void (...)* @_ssdm_RegionEnd(i8* getelementptr inbounds ([12 x i8]* @.str32, i32 0, i32 0)) nounwind, !dbg !7359 ; [debug line = 124:9]
  br label %43, !dbg !7359                        ; [debug line = 124:9]

; <label>:43                                      ; preds = %42
  %44 = load i64* %idx_2, align 8, !dbg !7360     ; [#uses=1 type=i64] [debug line = 116:42]
  %45 = add i64 %44, 1, !dbg !7360                ; [#uses=1 type=i64] [debug line = 116:42]
  store i64 %45, i64* %idx_2, align 8, !dbg !7360 ; [debug line = 116:42]
  br label %10, !dbg !7360                        ; [debug line = 116:42]

; <label>:46                                      ; preds = %10
  call void (...)* @_ssdm_RegionEnd(i8* getelementptr inbounds ([13 x i8]* @.str31, i32 0, i32 0)) nounwind, !dbg !7361 ; [debug line = 124:9]
  br label %47, !dbg !7361                        ; [debug line = 124:9]

; <label>:47                                      ; preds = %46
  %48 = load i64* %idx_3, align 8, !dbg !7362     ; [#uses=1 type=i64] [debug line = 114:42]
  %49 = add i64 %48, 1, !dbg !7362                ; [#uses=1 type=i64] [debug line = 114:42]
  store i64 %49, i64* %idx_3, align 8, !dbg !7362 ; [debug line = 114:42]
  br label %6, !dbg !7362                         ; [debug line = 114:42]

; <label>:50                                      ; preds = %6
  ret void, !dbg !7363                            ; [debug line = 125:9]
}

; [#uses=29]
define linkonce_odr i32* @_ZN7StencilIiLm1ELm1ELm1ELm1EEclEmmmm(%struct.Stencil.9* %this, i64 %index_0, i64 %index_1, i64 %index_2, i64 %index_3) nounwind uwtable inlinehint align 2 {
  %1 = alloca %struct.Stencil.9*, align 8         ; [#uses=2 type=%struct.Stencil.9**]
  %2 = alloca i64, align 8                        ; [#uses=3 type=i64*]
  %3 = alloca i64, align 8                        ; [#uses=3 type=i64*]
  %4 = alloca i64, align 8                        ; [#uses=3 type=i64*]
  %5 = alloca i64, align 8                        ; [#uses=3 type=i64*]
  store %struct.Stencil.9* %this, %struct.Stencil.9** %1, align 8
  call void @llvm.dbg.declare(metadata !{%struct.Stencil.9** %1}, metadata !7364), !dbg !7365 ; [debug line = 168:15] [debug variable = this]
  store i64 %index_0, i64* %2, align 8
  call void @llvm.dbg.declare(metadata !{i64* %2}, metadata !7366), !dbg !7367 ; [debug line = 168:33] [debug variable = index_0]
  store i64 %index_1, i64* %3, align 8
  call void @llvm.dbg.declare(metadata !{i64* %3}, metadata !7368), !dbg !7369 ; [debug line = 168:49] [debug variable = index_1]
  store i64 %index_2, i64* %4, align 8
  call void @llvm.dbg.declare(metadata !{i64* %4}, metadata !7370), !dbg !7371 ; [debug line = 168:69] [debug variable = index_2]
  store i64 %index_3, i64* %5, align 8
  call void @llvm.dbg.declare(metadata !{i64* %5}, metadata !7372), !dbg !7373 ; [debug line = 168:89] [debug variable = index_3]
  %6 = load %struct.Stencil.9** %1                ; [#uses=1 type=%struct.Stencil.9*]
  call void (...)* @_ssdm_InlineSelf(i32 0, i8* getelementptr inbounds ([1 x i8]* @.str, i32 0, i32 0)) nounwind, !dbg !7374 ; [debug line = 169:1]
  %7 = load i64* %2, align 8, !dbg !7376          ; [#uses=1 type=i64] [debug line = 170:2]
  %8 = icmp ult i64 %7, 1, !dbg !7376             ; [#uses=1 type=i1] [debug line = 170:2]
  br i1 %8, label %9, label %18, !dbg !7376       ; [debug line = 170:2]

; <label>:9                                       ; preds = %0
  %10 = load i64* %3, align 8, !dbg !7376         ; [#uses=1 type=i64] [debug line = 170:2]
  %11 = icmp ult i64 %10, 1, !dbg !7376           ; [#uses=1 type=i1] [debug line = 170:2]
  br i1 %11, label %12, label %18, !dbg !7376     ; [debug line = 170:2]

; <label>:12                                      ; preds = %9
  %13 = load i64* %4, align 8, !dbg !7376         ; [#uses=1 type=i64] [debug line = 170:2]
  %14 = icmp ult i64 %13, 1, !dbg !7376           ; [#uses=1 type=i1] [debug line = 170:2]
  br i1 %14, label %15, label %18, !dbg !7376     ; [debug line = 170:2]

; <label>:15                                      ; preds = %12
  %16 = load i64* %5, align 8, !dbg !7376         ; [#uses=1 type=i64] [debug line = 170:2]
  %17 = icmp ult i64 %16, 1, !dbg !7376           ; [#uses=1 type=i1] [debug line = 170:2]
  br label %18

; <label>:18                                      ; preds = %15, %12, %9, %0
  %19 = phi i1 [ false, %12 ], [ false, %9 ], [ false, %0 ], [ %17, %15 ] ; [#uses=1 type=i1]
  br i1 %19, label %20, label %21

; <label>:20                                      ; preds = %18
  br label %23

; <label>:21                                      ; preds = %18
  call void @__assert_fail(i8* getelementptr inbounds ([85 x i8]* @.str11, i32 0, i32 0), i8* getelementptr inbounds ([29 x i8]* @.str12, i32 0, i32 0), i32 170, i8* getelementptr inbounds ([138 x i8]* @__PRETTY_FUNCTION__._ZN7StencilIiLm1ELm1ELm1ELm1EEclEmmmm, i32 0, i32 0)) noreturn nounwind, !dbg !7377 ; [debug line = 170:122]
  unreachable, !dbg !7377                         ; [debug line = 170:122]
                                                  ; No predecessors!
  br label %23, !dbg !7377                        ; [debug line = 170:122]

; <label>:23                                      ; preds = %22, %20
  %24 = load i64* %2, align 8, !dbg !7378         ; [#uses=1 type=i64] [debug line = 171:9]
  %25 = load i64* %3, align 8, !dbg !7378         ; [#uses=1 type=i64] [debug line = 171:9]
  %26 = load i64* %4, align 8, !dbg !7378         ; [#uses=1 type=i64] [debug line = 171:9]
  %27 = load i64* %5, align 8, !dbg !7378         ; [#uses=1 type=i64] [debug line = 171:9]
  %28 = getelementptr inbounds %struct.Stencil.9* %6, i32 0, i32 0, !dbg !7378 ; [#uses=1 type=[1 x [1 x [1 x [1 x i32]]]]*] [debug line = 171:9]
  %29 = getelementptr inbounds [1 x [1 x [1 x [1 x i32]]]]* %28, i32 0, i64 %27, !dbg !7378 ; [#uses=1 type=[1 x [1 x [1 x i32]]]*] [debug line = 171:9]
  %30 = getelementptr inbounds [1 x [1 x [1 x i32]]]* %29, i32 0, i64 %26, !dbg !7378 ; [#uses=1 type=[1 x [1 x i32]]*] [debug line = 171:9]
  %31 = getelementptr inbounds [1 x [1 x i32]]* %30, i32 0, i64 %25, !dbg !7378 ; [#uses=1 type=[1 x i32]*] [debug line = 171:9]
  %32 = getelementptr inbounds [1 x i32]* %31, i32 0, i64 %24, !dbg !7378 ; [#uses=1 type=i32*] [debug line = 171:9]
  ret i32* %32, !dbg !7378                        ; [debug line = 171:9]
}

; [#uses=9]
define linkonce_odr i32* @_ZN7StencilIjLm3ELm3ELm1ELm1EEclEmmmm(%struct.Stencil* %this, i64 %index_0, i64 %index_1, i64 %index_2, i64 %index_3) nounwind uwtable inlinehint align 2 {
  %1 = alloca %struct.Stencil*, align 8           ; [#uses=2 type=%struct.Stencil**]
  %2 = alloca i64, align 8                        ; [#uses=3 type=i64*]
  %3 = alloca i64, align 8                        ; [#uses=3 type=i64*]
  %4 = alloca i64, align 8                        ; [#uses=3 type=i64*]
  %5 = alloca i64, align 8                        ; [#uses=3 type=i64*]
  store %struct.Stencil* %this, %struct.Stencil** %1, align 8
  call void @llvm.dbg.declare(metadata !{%struct.Stencil** %1}, metadata !7379), !dbg !7380 ; [debug line = 168:15] [debug variable = this]
  store i64 %index_0, i64* %2, align 8
  call void @llvm.dbg.declare(metadata !{i64* %2}, metadata !7381), !dbg !7382 ; [debug line = 168:33] [debug variable = index_0]
  store i64 %index_1, i64* %3, align 8
  call void @llvm.dbg.declare(metadata !{i64* %3}, metadata !7383), !dbg !7384 ; [debug line = 168:49] [debug variable = index_1]
  store i64 %index_2, i64* %4, align 8
  call void @llvm.dbg.declare(metadata !{i64* %4}, metadata !7385), !dbg !7386 ; [debug line = 168:69] [debug variable = index_2]
  store i64 %index_3, i64* %5, align 8
  call void @llvm.dbg.declare(metadata !{i64* %5}, metadata !7387), !dbg !7388 ; [debug line = 168:89] [debug variable = index_3]
  %6 = load %struct.Stencil** %1                  ; [#uses=1 type=%struct.Stencil*]
  call void (...)* @_ssdm_InlineSelf(i32 0, i8* getelementptr inbounds ([1 x i8]* @.str, i32 0, i32 0)) nounwind, !dbg !7389 ; [debug line = 169:1]
  %7 = load i64* %2, align 8, !dbg !7391          ; [#uses=1 type=i64] [debug line = 170:2]
  %8 = icmp ult i64 %7, 3, !dbg !7391             ; [#uses=1 type=i1] [debug line = 170:2]
  br i1 %8, label %9, label %18, !dbg !7391       ; [debug line = 170:2]

; <label>:9                                       ; preds = %0
  %10 = load i64* %3, align 8, !dbg !7391         ; [#uses=1 type=i64] [debug line = 170:2]
  %11 = icmp ult i64 %10, 3, !dbg !7391           ; [#uses=1 type=i1] [debug line = 170:2]
  br i1 %11, label %12, label %18, !dbg !7391     ; [debug line = 170:2]

; <label>:12                                      ; preds = %9
  %13 = load i64* %4, align 8, !dbg !7391         ; [#uses=1 type=i64] [debug line = 170:2]
  %14 = icmp ult i64 %13, 1, !dbg !7391           ; [#uses=1 type=i1] [debug line = 170:2]
  br i1 %14, label %15, label %18, !dbg !7391     ; [debug line = 170:2]

; <label>:15                                      ; preds = %12
  %16 = load i64* %5, align 8, !dbg !7391         ; [#uses=1 type=i64] [debug line = 170:2]
  %17 = icmp ult i64 %16, 1, !dbg !7391           ; [#uses=1 type=i1] [debug line = 170:2]
  br label %18

; <label>:18                                      ; preds = %15, %12, %9, %0
  %19 = phi i1 [ false, %12 ], [ false, %9 ], [ false, %0 ], [ %17, %15 ] ; [#uses=1 type=i1]
  br i1 %19, label %20, label %21

; <label>:20                                      ; preds = %18
  br label %23

; <label>:21                                      ; preds = %18
  call void @__assert_fail(i8* getelementptr inbounds ([85 x i8]* @.str11, i32 0, i32 0), i8* getelementptr inbounds ([29 x i8]* @.str12, i32 0, i32 0), i32 170, i8* getelementptr inbounds ([156 x i8]* @__PRETTY_FUNCTION__._ZN7StencilIjLm3ELm3ELm1ELm1EEclEmmmm, i32 0, i32 0)) noreturn nounwind, !dbg !7392 ; [debug line = 170:122]
  unreachable, !dbg !7392                         ; [debug line = 170:122]
                                                  ; No predecessors!
  br label %23, !dbg !7392                        ; [debug line = 170:122]

; <label>:23                                      ; preds = %22, %20
  %24 = load i64* %2, align 8, !dbg !7393         ; [#uses=1 type=i64] [debug line = 171:9]
  %25 = load i64* %3, align 8, !dbg !7393         ; [#uses=1 type=i64] [debug line = 171:9]
  %26 = load i64* %4, align 8, !dbg !7393         ; [#uses=1 type=i64] [debug line = 171:9]
  %27 = load i64* %5, align 8, !dbg !7393         ; [#uses=1 type=i64] [debug line = 171:9]
  %28 = getelementptr inbounds %struct.Stencil* %6, i32 0, i32 0, !dbg !7393 ; [#uses=1 type=[1 x [1 x [3 x [3 x i32]]]]*] [debug line = 171:9]
  %29 = getelementptr inbounds [1 x [1 x [3 x [3 x i32]]]]* %28, i32 0, i64 %27, !dbg !7393 ; [#uses=1 type=[1 x [3 x [3 x i32]]]*] [debug line = 171:9]
  %30 = getelementptr inbounds [1 x [3 x [3 x i32]]]* %29, i32 0, i64 %26, !dbg !7393 ; [#uses=1 type=[3 x [3 x i32]]*] [debug line = 171:9]
  %31 = getelementptr inbounds [3 x [3 x i32]]* %30, i32 0, i64 %25, !dbg !7393 ; [#uses=1 type=[3 x i32]*] [debug line = 171:9]
  %32 = getelementptr inbounds [3 x i32]* %31, i32 0, i64 %24, !dbg !7393 ; [#uses=1 type=i32*] [debug line = 171:9]
  ret i32* %32, !dbg !7393                        ; [debug line = 171:9]
}

; [#uses=2]
define linkonce_odr void @_ZN3hls6streamI13PackedStencilIiLm1ELm1ELm1ELm1EEE5writeERKS2_(%"class.hls::stream.7"* %this, %struct.PackedStencil.8* %din) nounwind uwtable inlinehint alwaysinline align 2 {
  %1 = alloca %"class.hls::stream.7"*, align 8    ; [#uses=2 type=%"class.hls::stream.7"**]
  %2 = alloca %struct.PackedStencil.8*, align 8   ; [#uses=2 type=%struct.PackedStencil.8**]
  %tmp = alloca %struct.PackedStencil.8, align 4  ; [#uses=3 type=%struct.PackedStencil.8*]
  store %"class.hls::stream.7"* %this, %"class.hls::stream.7"** %1, align 8
  call void @llvm.dbg.declare(metadata !{%"class.hls::stream.7"** %1}, metadata !7394), !dbg !7395 ; [debug line = 144:48] [debug variable = this]
  store %struct.PackedStencil.8* %din, %struct.PackedStencil.8** %2, align 8
  call void @llvm.dbg.declare(metadata !{%struct.PackedStencil.8** %2}, metadata !7396), !dbg !7397 ; [debug line = 144:74] [debug variable = din]
  %3 = load %"class.hls::stream.7"** %1           ; [#uses=1 type=%"class.hls::stream.7"*]
  call void @llvm.dbg.declare(metadata !{%struct.PackedStencil.8* %tmp}, metadata !7398), !dbg !7400 ; [debug line = 145:22] [debug variable = tmp]
  %4 = load %struct.PackedStencil.8** %2, align 8, !dbg !7401 ; [#uses=2 type=%struct.PackedStencil.8*] [debug line = 145:31]
  %5 = bitcast %struct.PackedStencil.8* %tmp to i8*, !dbg !7401 ; [#uses=0 type=i8*] [debug line = 145:31]
  %6 = bitcast %struct.PackedStencil.8* %4 to i8*, !dbg !7401 ; [#uses=0 type=i8*] [debug line = 145:31]
  %7 = getelementptr inbounds %struct.PackedStencil.8* %tmp, i32 0, i32 0, !dbg !7401 ; [#uses=1 type=%struct.ap_uint*] [debug line = 145:31]
  %8 = getelementptr inbounds %struct.PackedStencil.8* %4, i32 0, i32 0, !dbg !7401 ; [#uses=1 type=%struct.ap_uint*] [debug line = 145:31]
  %9 = getelementptr inbounds %struct.ap_uint* %7, i32 0, i32 0, !dbg !7401 ; [#uses=1 type=%struct.ap_int_base*] [debug line = 145:31]
  %10 = getelementptr inbounds %struct.ap_uint* %8, i32 0, i32 0, !dbg !7401 ; [#uses=1 type=%struct.ap_int_base*] [debug line = 145:31]
  %11 = getelementptr inbounds %struct.ap_int_base* %9, i32 0, i32 0, !dbg !7401 ; [#uses=1 type=%struct.ssdm_int*] [debug line = 145:31]
  %12 = getelementptr inbounds %struct.ap_int_base* %10, i32 0, i32 0, !dbg !7401 ; [#uses=1 type=%struct.ssdm_int*] [debug line = 145:31]
  %13 = getelementptr inbounds %struct.ssdm_int* %11, i32 0, i32 0, !dbg !7401 ; [#uses=1 type=i32*] [debug line = 145:31]
  %14 = getelementptr inbounds %struct.ssdm_int* %12, i32 0, i32 0, !dbg !7401 ; [#uses=1 type=i32*] [debug line = 145:31]
  %15 = load i32* %14, !dbg !7401                 ; [#uses=1 type=i32] [debug line = 145:31]
  store i32 %15, i32* %13, !dbg !7401             ; [debug line = 145:31]
  %16 = getelementptr inbounds %"class.hls::stream.7"* %3, i32 0, i32 0, !dbg !7402 ; [#uses=1 type=%struct.PackedStencil.8*] [debug line = 146:9]
  call void (...)* @_ssdm_StreamWrite(%struct.PackedStencil.8* %16, %struct.PackedStencil.8* %tmp) nounwind, !dbg !7402 ; [debug line = 146:9]
  ret void, !dbg !7403                            ; [debug line = 147:5]
}

; [#uses=2]
define linkonce_odr void @_ZN7StencilIiLm1ELm1ELm1ELm1EEcv13PackedStencilIiLm1ELm1ELm1ELm1EEEv(%struct.PackedStencil.8* noalias sret %agg.result, %struct.Stencil.9* %this) nounwind uwtable align 2 {
  %1 = alloca %struct.Stencil.9*, align 8         ; [#uses=2 type=%struct.Stencil.9**]
  %word_length = alloca i64, align 8              ; [#uses=1 type=i64*]
  %idx_3 = alloca i64, align 8                    ; [#uses=6 type=i64*]
  %idx_2 = alloca i64, align 8                    ; [#uses=6 type=i64*]
  %idx_1 = alloca i64, align 8                    ; [#uses=6 type=i64*]
  %idx_0 = alloca i64, align 8                    ; [#uses=6 type=i64*]
  %temp = alloca %struct.ap_uint, align 4         ; [#uses=2 type=%struct.ap_uint*]
  %2 = alloca %struct.ap_range_ref, align 8       ; [#uses=2 type=%struct.ap_range_ref*]
  store %struct.Stencil.9* %this, %struct.Stencil.9** %1, align 8
  call void @llvm.dbg.declare(metadata !{%struct.Stencil.9** %1}, metadata !7404), !dbg !7405 ; [debug line = 183:5] [debug variable = this]
  %3 = load %struct.Stencil.9** %1                ; [#uses=1 type=%struct.Stencil.9*]
  call void (...)* @_ssdm_InlineSelf(i32 0, i8* getelementptr inbounds ([1 x i8]* @.str, i32 0, i32 0)) nounwind, !dbg !7406 ; [debug line = 184:1]
  call void @llvm.dbg.declare(metadata !{%struct.PackedStencil.8* %agg.result}, metadata !7408), !dbg !7409 ; [debug line = 185:59] [debug variable = res]
  call void @_ZN13PackedStencilIiLm1ELm1ELm1ELm1EEC1Ev(%struct.PackedStencil.8* %agg.result), !dbg !7410 ; [debug line = 185:62]
  call void @llvm.dbg.declare(metadata !{i64* %word_length}, metadata !7411), !dbg !7412 ; [debug line = 186:22] [debug variable = word_length]
  store i64 32, i64* %word_length, align 8, !dbg !7413 ; [debug line = 186:49]
  call void @llvm.dbg.declare(metadata !{i64* %idx_3}, metadata !7414), !dbg !7416 ; [debug line = 188:20] [debug variable = idx_3]
  store i64 0, i64* %idx_3, align 8, !dbg !7417   ; [debug line = 188:29]
  br label %4, !dbg !7417                         ; [debug line = 188:29]

; <label>:4                                       ; preds = %49, %0
  %5 = load i64* %idx_3, align 8, !dbg !7417      ; [#uses=1 type=i64] [debug line = 188:29]
  %6 = icmp ult i64 %5, 1, !dbg !7417             ; [#uses=1 type=i1] [debug line = 188:29]
  br i1 %6, label %7, label %52, !dbg !7417       ; [debug line = 188:29]

; <label>:7                                       ; preds = %4
  call void (...)* @_ssdm_RegionBegin(i8* getelementptr inbounds ([13 x i8]* @.str27, i32 0, i32 0)) nounwind, !dbg !7418 ; [debug line = 190:3]
  call void (...)* @_ssdm_Unroll(i32 0, i32 0, i32 0, i8* getelementptr inbounds ([1 x i8]* @.str, i32 0, i32 0)) nounwind, !dbg !7420 ; [debug line = 189:1]
  call void @llvm.dbg.declare(metadata !{i64* %idx_2}, metadata !7421), !dbg !7423 ; [debug line = 190:13] [debug variable = idx_2]
  store i64 0, i64* %idx_2, align 8, !dbg !7424   ; [debug line = 190:22]
  br label %8, !dbg !7424                         ; [debug line = 190:22]

; <label>:8                                       ; preds = %45, %7
  %9 = load i64* %idx_2, align 8, !dbg !7424      ; [#uses=1 type=i64] [debug line = 190:22]
  %10 = icmp ult i64 %9, 1, !dbg !7424            ; [#uses=1 type=i1] [debug line = 190:22]
  br i1 %10, label %11, label %48, !dbg !7424     ; [debug line = 190:22]

; <label>:11                                      ; preds = %8
  call void (...)* @_ssdm_RegionBegin(i8* getelementptr inbounds ([13 x i8]* @.str28, i32 0, i32 0)) nounwind, !dbg !7425 ; [debug line = 192:3]
  call void (...)* @_ssdm_Unroll(i32 0, i32 0, i32 0, i8* getelementptr inbounds ([1 x i8]* @.str, i32 0, i32 0)) nounwind, !dbg !7427 ; [debug line = 191:1]
  call void @llvm.dbg.declare(metadata !{i64* %idx_1}, metadata !7428), !dbg !7430 ; [debug line = 192:13] [debug variable = idx_1]
  store i64 0, i64* %idx_1, align 8, !dbg !7431   ; [debug line = 192:22]
  br label %12, !dbg !7431                        ; [debug line = 192:22]

; <label>:12                                      ; preds = %41, %11
  %13 = load i64* %idx_1, align 8, !dbg !7431     ; [#uses=1 type=i64] [debug line = 192:22]
  %14 = icmp ult i64 %13, 1, !dbg !7431           ; [#uses=1 type=i1] [debug line = 192:22]
  br i1 %14, label %15, label %44, !dbg !7431     ; [debug line = 192:22]

; <label>:15                                      ; preds = %12
  call void (...)* @_ssdm_RegionBegin(i8* getelementptr inbounds ([13 x i8]* @.str29, i32 0, i32 0)) nounwind, !dbg !7432 ; [debug line = 194:3]
  call void (...)* @_ssdm_Unroll(i32 0, i32 0, i32 0, i8* getelementptr inbounds ([1 x i8]* @.str, i32 0, i32 0)) nounwind, !dbg !7434 ; [debug line = 193:1]
  call void @llvm.dbg.declare(metadata !{i64* %idx_0}, metadata !7435), !dbg !7437 ; [debug line = 194:13] [debug variable = idx_0]
  store i64 0, i64* %idx_0, align 8, !dbg !7438   ; [debug line = 194:22]
  br label %16, !dbg !7438                        ; [debug line = 194:22]

; <label>:16                                      ; preds = %37, %15
  %17 = load i64* %idx_0, align 8, !dbg !7438     ; [#uses=1 type=i64] [debug line = 194:22]
  %18 = icmp ult i64 %17, 1, !dbg !7438           ; [#uses=1 type=i1] [debug line = 194:22]
  br i1 %18, label %19, label %40, !dbg !7438     ; [debug line = 194:22]

; <label>:19                                      ; preds = %16
  call void (...)* @_ssdm_RegionBegin(i8* getelementptr inbounds ([13 x i8]* @.str30, i32 0, i32 0)) nounwind, !dbg !7439 ; [debug line = 194:52]
  call void (...)* @_ssdm_Unroll(i32 0, i32 0, i32 0, i8* getelementptr inbounds ([1 x i8]* @.str, i32 0, i32 0)) nounwind, !dbg !7441 ; [debug line = 195:1]
  call void @llvm.dbg.declare(metadata !{%struct.ap_uint* %temp}, metadata !7442), !dbg !7443 ; [debug line = 196:23] [debug variable = temp]
  %20 = load i64* %idx_0, align 8, !dbg !7444     ; [#uses=1 type=i64] [debug line = 196:30]
  %21 = load i64* %idx_1, align 8, !dbg !7444     ; [#uses=1 type=i64] [debug line = 196:30]
  %22 = load i64* %idx_2, align 8, !dbg !7444     ; [#uses=1 type=i64] [debug line = 196:30]
  %23 = load i64* %idx_3, align 8, !dbg !7444     ; [#uses=1 type=i64] [debug line = 196:30]
  %24 = getelementptr inbounds %struct.Stencil.9* %3, i32 0, i32 0, !dbg !7444 ; [#uses=1 type=[1 x [1 x [1 x [1 x i32]]]]*] [debug line = 196:30]
  %25 = getelementptr inbounds [1 x [1 x [1 x [1 x i32]]]]* %24, i32 0, i64 %23, !dbg !7444 ; [#uses=1 type=[1 x [1 x [1 x i32]]]*] [debug line = 196:30]
  %26 = getelementptr inbounds [1 x [1 x [1 x i32]]]* %25, i32 0, i64 %22, !dbg !7444 ; [#uses=1 type=[1 x [1 x i32]]*] [debug line = 196:30]
  %27 = getelementptr inbounds [1 x [1 x i32]]* %26, i32 0, i64 %21, !dbg !7444 ; [#uses=1 type=[1 x i32]*] [debug line = 196:30]
  %28 = getelementptr inbounds [1 x i32]* %27, i32 0, i64 %20, !dbg !7444 ; [#uses=1 type=i32*] [debug line = 196:30]
  %29 = load i32* %28, align 4, !dbg !7444        ; [#uses=1 type=i32] [debug line = 196:30]
  %30 = call i32 @_Z15bitcast_to_uintIiET_S0_(i32 %29), !dbg !7444 ; [#uses=1 type=i32] [debug line = 196:30]
  call void @_ZN7ap_uintILi32EEC1Ei(%struct.ap_uint* %temp, i32 %30), !dbg !7444 ; [debug line = 196:30]
  %31 = load i64* %idx_0, align 8, !dbg !7445     ; [#uses=1 type=i64] [debug line = 197:13]
  %32 = load i64* %idx_1, align 8, !dbg !7445     ; [#uses=1 type=i64] [debug line = 197:13]
  %33 = load i64* %idx_2, align 8, !dbg !7445     ; [#uses=1 type=i64] [debug line = 197:13]
  %34 = load i64* %idx_3, align 8, !dbg !7445     ; [#uses=1 type=i64] [debug line = 197:13]
  call void @_ZN13PackedStencilIiLm1ELm1ELm1ELm1EEclEmmmm(%struct.ap_range_ref* sret %2, %struct.PackedStencil.8* %agg.result, i64 %31, i64 %32, i64 %33, i64 %34), !dbg !7445 ; [debug line = 197:13]
  %35 = bitcast %struct.ap_uint* %temp to %struct.ap_int_base*, !dbg !7445 ; [#uses=1 type=%struct.ap_int_base*] [debug line = 197:13]
  %36 = call %struct.ap_range_ref* @_ZN12ap_range_refILi32ELb0EEaSILi32ELb0EEERS0_RK11ap_int_baseIXT_EXT0_EXleT_Li64EEE(%struct.ap_range_ref* %2, %struct.ap_int_base* %35), !dbg !7445 ; [#uses=0 type=%struct.ap_range_ref*] [debug line = 197:13]
  call void (...)* @_ssdm_RegionEnd(i8* getelementptr inbounds ([13 x i8]* @.str30, i32 0, i32 0)) nounwind, !dbg !7446 ; [debug line = 198:9]
  br label %37, !dbg !7446                        ; [debug line = 198:9]

; <label>:37                                      ; preds = %19
  %38 = load i64* %idx_0, align 8, !dbg !7447     ; [#uses=1 type=i64] [debug line = 194:42]
  %39 = add i64 %38, 1, !dbg !7447                ; [#uses=1 type=i64] [debug line = 194:42]
  store i64 %39, i64* %idx_0, align 8, !dbg !7447 ; [debug line = 194:42]
  br label %16, !dbg !7447                        ; [debug line = 194:42]

; <label>:40                                      ; preds = %16
  call void (...)* @_ssdm_RegionEnd(i8* getelementptr inbounds ([13 x i8]* @.str29, i32 0, i32 0)) nounwind, !dbg !7448 ; [debug line = 198:9]
  br label %41, !dbg !7448                        ; [debug line = 198:9]

; <label>:41                                      ; preds = %40
  %42 = load i64* %idx_1, align 8, !dbg !7449     ; [#uses=1 type=i64] [debug line = 192:42]
  %43 = add i64 %42, 1, !dbg !7449                ; [#uses=1 type=i64] [debug line = 192:42]
  store i64 %43, i64* %idx_1, align 8, !dbg !7449 ; [debug line = 192:42]
  br label %12, !dbg !7449                        ; [debug line = 192:42]

; <label>:44                                      ; preds = %12
  call void (...)* @_ssdm_RegionEnd(i8* getelementptr inbounds ([13 x i8]* @.str28, i32 0, i32 0)) nounwind, !dbg !7450 ; [debug line = 198:9]
  br label %45, !dbg !7450                        ; [debug line = 198:9]

; <label>:45                                      ; preds = %44
  %46 = load i64* %idx_2, align 8, !dbg !7451     ; [#uses=1 type=i64] [debug line = 190:42]
  %47 = add i64 %46, 1, !dbg !7451                ; [#uses=1 type=i64] [debug line = 190:42]
  store i64 %47, i64* %idx_2, align 8, !dbg !7451 ; [debug line = 190:42]
  br label %8, !dbg !7451                         ; [debug line = 190:42]

; <label>:48                                      ; preds = %8
  call void (...)* @_ssdm_RegionEnd(i8* getelementptr inbounds ([13 x i8]* @.str27, i32 0, i32 0)) nounwind, !dbg !7452 ; [debug line = 198:9]
  br label %49, !dbg !7452                        ; [debug line = 198:9]

; <label>:49                                      ; preds = %48
  %50 = load i64* %idx_3, align 8, !dbg !7453     ; [#uses=1 type=i64] [debug line = 188:49]
  %51 = add i64 %50, 1, !dbg !7453                ; [#uses=1 type=i64] [debug line = 188:49]
  store i64 %51, i64* %idx_3, align 8, !dbg !7453 ; [debug line = 188:49]
  br label %4, !dbg !7453                         ; [debug line = 188:49]

; <label>:52                                      ; preds = %4
  ret void, !dbg !7454                            ; [debug line = 199:9]
}

; [#uses=36]
declare void @_ssdm_RegionEnd(...) nounwind

; [#uses=1]
define linkonce_odr void @_ZN3hls6streamI13PackedStencilIiLm2ELm2ELm1ELm1EEEC1Ev(%"class.hls::stream.10"* %this) unnamed_addr nounwind uwtable inlinehint alwaysinline align 2 {
  %1 = alloca %"class.hls::stream.10"*, align 8   ; [#uses=2 type=%"class.hls::stream.10"**]
  store %"class.hls::stream.10"* %this, %"class.hls::stream.10"** %1, align 8
  call void @llvm.dbg.declare(metadata !{%"class.hls::stream.10"** %1}, metadata !7455), !dbg !7457 ; [debug line = 83:43] [debug variable = this]
  %2 = load %"class.hls::stream.10"** %1          ; [#uses=1 type=%"class.hls::stream.10"*]
  call void @_ZN3hls6streamI13PackedStencilIiLm2ELm2ELm1ELm1EEEC2Ev(%"class.hls::stream.10"* %2), !dbg !7458 ; [debug line = 84:5]
  ret void, !dbg !7458                            ; [debug line = 84:5]
}

; [#uses=1]
define linkonce_odr void @_Z10linebufferILm1918ELm1078ELm1ELm1ELm1ELm1ELm1ELm1ELm2ELm2ELm1ELm1EiEvRN3hls6streamI13PackedStencilIT11_XT3_EXT4_EXT5_EXT6_EEEERNS1_IS2_IS3_XT7_EXT8_EXT9_EXT10_EEEE(%"class.hls::stream.7"* %in_stream, %"class.hls::stream.10"* %out_stream) nounwind uwtable {
  %1 = alloca %"class.hls::stream.7"*, align 8    ; [#uses=2 type=%"class.hls::stream.7"**]
  %2 = alloca %"class.hls::stream.10"*, align 8   ; [#uses=2 type=%"class.hls::stream.10"**]
  store %"class.hls::stream.7"* %in_stream, %"class.hls::stream.7"** %1, align 8
  call void @llvm.dbg.declare(metadata !{%"class.hls::stream.7"** %1}, metadata !7459), !dbg !7460 ; [debug line = 525:96] [debug variable = in_stream]
  store %"class.hls::stream.10"* %out_stream, %"class.hls::stream.10"** %2, align 8
  call void @llvm.dbg.declare(metadata !{%"class.hls::stream.10"** %2}, metadata !7461), !dbg !7462 ; [debug line = 526:86] [debug variable = out_stream]
  call void (...)* @_ssdm_InlineSelf(i32 2, i8* getelementptr inbounds ([1 x i8]* @.str, i32 0, i32 0)) nounwind, !dbg !7463 ; [debug line = 528:1]
  call void (...)* @_ssdm_op_SpecDataflowPipeline(i32 -1, i8* getelementptr inbounds ([1 x i8]* @.str, i32 0, i32 0)) nounwind, !dbg !7465 ; [debug line = 529:1]
  %3 = load %"class.hls::stream.7"** %1, align 8, !dbg !7466 ; [#uses=1 type=%"class.hls::stream.7"*] [debug line = 530:2]
  %4 = load %"class.hls::stream.10"** %2, align 8, !dbg !7466 ; [#uses=1 type=%"class.hls::stream.10"*] [debug line = 530:2]
  call void @_Z13linebuffer_4DILm1918ELm1078ELm1ELm1ELm1ELm1ELm1ELm2ELm2ELm1ELm1EiEvRN3hls6streamI13PackedStencilIT10_XT3_EXT4_EXT5_EXT9_EEEERNS1_IS2_IS3_XT6_EXT7_EXT8_EXT9_EEEE(%"class.hls::stream.7"* %3, %"class.hls::stream.10"* %4), !dbg !7466 ; [debug line = 530:2]
  ret void, !dbg !7467                            ; [debug line = 531:1]
}

; [#uses=1]
define linkonce_odr void @_ZN3hls6streamI13PackedStencilIiLm2ELm2ELm1ELm1EEE4readEv(%struct.PackedStencil.11* noalias sret %agg.result, %"class.hls::stream.10"* %this) nounwind uwtable inlinehint alwaysinline align 2 {
  %1 = alloca %"class.hls::stream.10"*, align 8   ; [#uses=2 type=%"class.hls::stream.10"**]
  store %"class.hls::stream.10"* %this, %"class.hls::stream.10"** %1, align 8
  call void @llvm.dbg.declare(metadata !{%"class.hls::stream.10"** %1}, metadata !7468), !dbg !7469 ; [debug line = 129:56] [debug variable = this]
  %2 = load %"class.hls::stream.10"** %1          ; [#uses=1 type=%"class.hls::stream.10"*]
  call void @llvm.dbg.declare(metadata !{%struct.PackedStencil.11* %agg.result}, metadata !7470), !dbg !7472 ; [debug line = 130:22] [debug variable = tmp]
  call void @_ZN13PackedStencilIiLm2ELm2ELm1ELm1EEC1Ev(%struct.PackedStencil.11* %agg.result), !dbg !7473 ; [debug line = 130:25]
  %3 = getelementptr inbounds %"class.hls::stream.10"* %2, i32 0, i32 0, !dbg !7474 ; [#uses=1 type=%struct.PackedStencil.11*] [debug line = 131:9]
  call void (...)* @_ssdm_StreamRead(%struct.PackedStencil.11* %3, %struct.PackedStencil.11* %agg.result) nounwind, !dbg !7474 ; [debug line = 131:9]
  ret void, !dbg !7475                            ; [debug line = 132:9]
}

; [#uses=1]
define linkonce_odr void @_ZN13PackedStencilIiLm2ELm2ELm1ELm1EEcv7StencilIiLm2ELm2ELm1ELm1EEEv(%struct.Stencil.15* noalias sret %agg.result, %struct.PackedStencil.11* %this) nounwind uwtable align 2 {
  %1 = alloca %struct.PackedStencil.11*, align 8  ; [#uses=2 type=%struct.PackedStencil.11**]
  %idx_3 = alloca i64, align 8                    ; [#uses=6 type=i64*]
  %idx_2 = alloca i64, align 8                    ; [#uses=6 type=i64*]
  %idx_1 = alloca i64, align 8                    ; [#uses=6 type=i64*]
  %idx_0 = alloca i64, align 8                    ; [#uses=6 type=i64*]
  %temp = alloca %struct.ap_uint, align 4         ; [#uses=2 type=%struct.ap_uint*]
  %2 = alloca %struct.ap_range_ref.27, align 8    ; [#uses=2 type=%struct.ap_range_ref.27*]
  store %struct.PackedStencil.11* %this, %struct.PackedStencil.11** %1, align 8
  call void @llvm.dbg.declare(metadata !{%struct.PackedStencil.11** %1}, metadata !7476), !dbg !7478 ; [debug line = 109:5] [debug variable = this]
  %3 = load %struct.PackedStencil.11** %1         ; [#uses=1 type=%struct.PackedStencil.11*]
  call void (...)* @_ssdm_InlineSelf(i32 0, i8* getelementptr inbounds ([1 x i8]* @.str, i32 0, i32 0)) nounwind, !dbg !7479 ; [debug line = 110:1]
  call void @llvm.dbg.declare(metadata !{%struct.Stencil.15* %agg.result}, metadata !7481), !dbg !7482 ; [debug line = 111:53] [debug variable = res]
  %4 = getelementptr inbounds %struct.Stencil.15* %agg.result, i32 0, i32 0, !dbg !7483 ; [#uses=1 type=[1 x [1 x [2 x [2 x i32]]]]*] [debug line = 112:1]
  %5 = getelementptr inbounds [1 x [1 x [2 x [2 x i32]]]]* %4, i32 0, i32 0, !dbg !7483 ; [#uses=1 type=[1 x [2 x [2 x i32]]]*] [debug line = 112:1]
  call void (...)* @_ssdm_SpecArrayPartition([1 x [2 x [2 x i32]]]* %5, i32 0, i8* getelementptr inbounds ([9 x i8]* @.str4, i32 0, i32 0), i32 0, i8* getelementptr inbounds ([1 x i8]* @.str, i32 0, i32 0)) nounwind, !dbg !7483 ; [debug line = 112:1]
  call void @llvm.dbg.declare(metadata !{i64* %idx_3}, metadata !7484), !dbg !7486 ; [debug line = 114:13] [debug variable = idx_3]
  store i64 0, i64* %idx_3, align 8, !dbg !7487   ; [debug line = 114:22]
  br label %6, !dbg !7487                         ; [debug line = 114:22]

; <label>:6                                       ; preds = %47, %0
  %7 = load i64* %idx_3, align 8, !dbg !7487      ; [#uses=1 type=i64] [debug line = 114:22]
  %8 = icmp ult i64 %7, 1, !dbg !7487             ; [#uses=1 type=i1] [debug line = 114:22]
  br i1 %8, label %9, label %50, !dbg !7487       ; [debug line = 114:22]

; <label>:9                                       ; preds = %6
  call void (...)* @_ssdm_RegionBegin(i8* getelementptr inbounds ([13 x i8]* @.str17, i32 0, i32 0)) nounwind, !dbg !7488 ; [debug line = 116:3]
  call void (...)* @_ssdm_Unroll(i32 0, i32 0, i32 0, i8* getelementptr inbounds ([1 x i8]* @.str, i32 0, i32 0)) nounwind, !dbg !7490 ; [debug line = 115:1]
  call void @llvm.dbg.declare(metadata !{i64* %idx_2}, metadata !7491), !dbg !7493 ; [debug line = 116:13] [debug variable = idx_2]
  store i64 0, i64* %idx_2, align 8, !dbg !7494   ; [debug line = 116:22]
  br label %10, !dbg !7494                        ; [debug line = 116:22]

; <label>:10                                      ; preds = %43, %9
  %11 = load i64* %idx_2, align 8, !dbg !7494     ; [#uses=1 type=i64] [debug line = 116:22]
  %12 = icmp ult i64 %11, 1, !dbg !7494           ; [#uses=1 type=i1] [debug line = 116:22]
  br i1 %12, label %13, label %46, !dbg !7494     ; [debug line = 116:22]

; <label>:13                                      ; preds = %10
  call void (...)* @_ssdm_RegionBegin(i8* getelementptr inbounds ([13 x i8]* @.str18, i32 0, i32 0)) nounwind, !dbg !7495 ; [debug line = 118:3]
  call void (...)* @_ssdm_Unroll(i32 0, i32 0, i32 0, i8* getelementptr inbounds ([1 x i8]* @.str, i32 0, i32 0)) nounwind, !dbg !7497 ; [debug line = 117:1]
  call void @llvm.dbg.declare(metadata !{i64* %idx_1}, metadata !7498), !dbg !7500 ; [debug line = 118:13] [debug variable = idx_1]
  store i64 0, i64* %idx_1, align 8, !dbg !7501   ; [debug line = 118:22]
  br label %14, !dbg !7501                        ; [debug line = 118:22]

; <label>:14                                      ; preds = %39, %13
  %15 = load i64* %idx_1, align 8, !dbg !7501     ; [#uses=1 type=i64] [debug line = 118:22]
  %16 = icmp ult i64 %15, 2, !dbg !7501           ; [#uses=1 type=i1] [debug line = 118:22]
  br i1 %16, label %17, label %42, !dbg !7501     ; [debug line = 118:22]

; <label>:17                                      ; preds = %14
  call void (...)* @_ssdm_RegionBegin(i8* getelementptr inbounds ([13 x i8]* @.str19, i32 0, i32 0)) nounwind, !dbg !7502 ; [debug line = 120:3]
  call void (...)* @_ssdm_Unroll(i32 0, i32 0, i32 0, i8* getelementptr inbounds ([1 x i8]* @.str, i32 0, i32 0)) nounwind, !dbg !7504 ; [debug line = 119:1]
  call void @llvm.dbg.declare(metadata !{i64* %idx_0}, metadata !7505), !dbg !7507 ; [debug line = 120:13] [debug variable = idx_0]
  store i64 0, i64* %idx_0, align 8, !dbg !7508   ; [debug line = 120:22]
  br label %18, !dbg !7508                        ; [debug line = 120:22]

; <label>:18                                      ; preds = %35, %17
  %19 = load i64* %idx_0, align 8, !dbg !7508     ; [#uses=1 type=i64] [debug line = 120:22]
  %20 = icmp ult i64 %19, 2, !dbg !7508           ; [#uses=1 type=i1] [debug line = 120:22]
  br i1 %20, label %21, label %38, !dbg !7508     ; [debug line = 120:22]

; <label>:21                                      ; preds = %18
  call void (...)* @_ssdm_RegionBegin(i8* getelementptr inbounds ([13 x i8]* @.str20, i32 0, i32 0)) nounwind, !dbg !7509 ; [debug line = 120:52]
  call void (...)* @_ssdm_Unroll(i32 0, i32 0, i32 0, i8* getelementptr inbounds ([1 x i8]* @.str, i32 0, i32 0)) nounwind, !dbg !7511 ; [debug line = 121:1]
  call void @llvm.dbg.declare(metadata !{%struct.ap_uint* %temp}, metadata !7512), !dbg !7513 ; [debug line = 122:25] [debug variable = temp]
  %22 = load i64* %idx_0, align 8, !dbg !7514     ; [#uses=1 type=i64] [debug line = 122:32]
  %23 = load i64* %idx_1, align 8, !dbg !7514     ; [#uses=1 type=i64] [debug line = 122:32]
  %24 = load i64* %idx_2, align 8, !dbg !7514     ; [#uses=1 type=i64] [debug line = 122:32]
  %25 = load i64* %idx_3, align 8, !dbg !7514     ; [#uses=1 type=i64] [debug line = 122:32]
  call void @_ZN13PackedStencilIiLm2ELm2ELm1ELm1EEclEmmmm(%struct.ap_range_ref.27* sret %2, %struct.PackedStencil.11* %3, i64 %22, i64 %23, i64 %24, i64 %25), !dbg !7514 ; [debug line = 122:32]
  call void @_ZN7ap_uintILi32EEC1ILi128ELb0EEERK12ap_range_refIXT_EXT0_EE(%struct.ap_uint* %temp, %struct.ap_range_ref.27* %2), !dbg !7514 ; [debug line = 122:32]
  %26 = load i64* %idx_0, align 8, !dbg !7515     ; [#uses=1 type=i64] [debug line = 123:13]
  %27 = load i64* %idx_1, align 8, !dbg !7515     ; [#uses=1 type=i64] [debug line = 123:13]
  %28 = load i64* %idx_2, align 8, !dbg !7515     ; [#uses=1 type=i64] [debug line = 123:13]
  %29 = load i64* %idx_3, align 8, !dbg !7515     ; [#uses=1 type=i64] [debug line = 123:13]
  %30 = getelementptr inbounds %struct.Stencil.15* %agg.result, i32 0, i32 0, !dbg !7515 ; [#uses=1 type=[1 x [1 x [2 x [2 x i32]]]]*] [debug line = 123:13]
  %31 = getelementptr inbounds [1 x [1 x [2 x [2 x i32]]]]* %30, i32 0, i64 %29, !dbg !7515 ; [#uses=1 type=[1 x [2 x [2 x i32]]]*] [debug line = 123:13]
  %32 = getelementptr inbounds [1 x [2 x [2 x i32]]]* %31, i32 0, i64 %28, !dbg !7515 ; [#uses=1 type=[2 x [2 x i32]]*] [debug line = 123:13]
  %33 = getelementptr inbounds [2 x [2 x i32]]* %32, i32 0, i64 %27, !dbg !7515 ; [#uses=1 type=[2 x i32]*] [debug line = 123:13]
  %34 = getelementptr inbounds [2 x i32]* %33, i32 0, i64 %26, !dbg !7515 ; [#uses=1 type=i32*] [debug line = 123:13]
  call void @_Z15bitcast_to_typeIiLi32EEvR7ap_uintIXT0_EERT_(%struct.ap_uint* %temp, i32* %34), !dbg !7515 ; [debug line = 123:13]
  call void (...)* @_ssdm_RegionEnd(i8* getelementptr inbounds ([13 x i8]* @.str20, i32 0, i32 0)) nounwind, !dbg !7516 ; [debug line = 124:9]
  br label %35, !dbg !7516                        ; [debug line = 124:9]

; <label>:35                                      ; preds = %21
  %36 = load i64* %idx_0, align 8, !dbg !7517     ; [#uses=1 type=i64] [debug line = 120:42]
  %37 = add i64 %36, 1, !dbg !7517                ; [#uses=1 type=i64] [debug line = 120:42]
  store i64 %37, i64* %idx_0, align 8, !dbg !7517 ; [debug line = 120:42]
  br label %18, !dbg !7517                        ; [debug line = 120:42]

; <label>:38                                      ; preds = %18
  call void (...)* @_ssdm_RegionEnd(i8* getelementptr inbounds ([13 x i8]* @.str19, i32 0, i32 0)) nounwind, !dbg !7518 ; [debug line = 124:9]
  br label %39, !dbg !7518                        ; [debug line = 124:9]

; <label>:39                                      ; preds = %38
  %40 = load i64* %idx_1, align 8, !dbg !7519     ; [#uses=1 type=i64] [debug line = 118:42]
  %41 = add i64 %40, 1, !dbg !7519                ; [#uses=1 type=i64] [debug line = 118:42]
  store i64 %41, i64* %idx_1, align 8, !dbg !7519 ; [debug line = 118:42]
  br label %14, !dbg !7519                        ; [debug line = 118:42]

; <label>:42                                      ; preds = %14
  call void (...)* @_ssdm_RegionEnd(i8* getelementptr inbounds ([13 x i8]* @.str18, i32 0, i32 0)) nounwind, !dbg !7520 ; [debug line = 124:9]
  br label %43, !dbg !7520                        ; [debug line = 124:9]

; <label>:43                                      ; preds = %42
  %44 = load i64* %idx_2, align 8, !dbg !7521     ; [#uses=1 type=i64] [debug line = 116:42]
  %45 = add i64 %44, 1, !dbg !7521                ; [#uses=1 type=i64] [debug line = 116:42]
  store i64 %45, i64* %idx_2, align 8, !dbg !7521 ; [debug line = 116:42]
  br label %10, !dbg !7521                        ; [debug line = 116:42]

; <label>:46                                      ; preds = %10
  call void (...)* @_ssdm_RegionEnd(i8* getelementptr inbounds ([13 x i8]* @.str17, i32 0, i32 0)) nounwind, !dbg !7522 ; [debug line = 124:9]
  br label %47, !dbg !7522                        ; [debug line = 124:9]

; <label>:47                                      ; preds = %46
  %48 = load i64* %idx_3, align 8, !dbg !7523     ; [#uses=1 type=i64] [debug line = 114:42]
  %49 = add i64 %48, 1, !dbg !7523                ; [#uses=1 type=i64] [debug line = 114:42]
  store i64 %49, i64* %idx_3, align 8, !dbg !7523 ; [debug line = 114:42]
  br label %6, !dbg !7523                         ; [debug line = 114:42]

; <label>:50                                      ; preds = %6
  ret void, !dbg !7524                            ; [debug line = 125:9]
}

; [#uses=4]
define linkonce_odr i32* @_ZN7StencilIiLm2ELm2ELm1ELm1EEclEmmmm(%struct.Stencil.15* %this, i64 %index_0, i64 %index_1, i64 %index_2, i64 %index_3) nounwind uwtable inlinehint align 2 {
  %1 = alloca %struct.Stencil.15*, align 8        ; [#uses=2 type=%struct.Stencil.15**]
  %2 = alloca i64, align 8                        ; [#uses=3 type=i64*]
  %3 = alloca i64, align 8                        ; [#uses=3 type=i64*]
  %4 = alloca i64, align 8                        ; [#uses=3 type=i64*]
  %5 = alloca i64, align 8                        ; [#uses=3 type=i64*]
  store %struct.Stencil.15* %this, %struct.Stencil.15** %1, align 8
  call void @llvm.dbg.declare(metadata !{%struct.Stencil.15** %1}, metadata !7525), !dbg !7526 ; [debug line = 168:15] [debug variable = this]
  store i64 %index_0, i64* %2, align 8
  call void @llvm.dbg.declare(metadata !{i64* %2}, metadata !7527), !dbg !7528 ; [debug line = 168:33] [debug variable = index_0]
  store i64 %index_1, i64* %3, align 8
  call void @llvm.dbg.declare(metadata !{i64* %3}, metadata !7529), !dbg !7530 ; [debug line = 168:49] [debug variable = index_1]
  store i64 %index_2, i64* %4, align 8
  call void @llvm.dbg.declare(metadata !{i64* %4}, metadata !7531), !dbg !7532 ; [debug line = 168:69] [debug variable = index_2]
  store i64 %index_3, i64* %5, align 8
  call void @llvm.dbg.declare(metadata !{i64* %5}, metadata !7533), !dbg !7534 ; [debug line = 168:89] [debug variable = index_3]
  %6 = load %struct.Stencil.15** %1               ; [#uses=1 type=%struct.Stencil.15*]
  call void (...)* @_ssdm_InlineSelf(i32 0, i8* getelementptr inbounds ([1 x i8]* @.str, i32 0, i32 0)) nounwind, !dbg !7535 ; [debug line = 169:1]
  %7 = load i64* %2, align 8, !dbg !7537          ; [#uses=1 type=i64] [debug line = 170:2]
  %8 = icmp ult i64 %7, 2, !dbg !7537             ; [#uses=1 type=i1] [debug line = 170:2]
  br i1 %8, label %9, label %18, !dbg !7537       ; [debug line = 170:2]

; <label>:9                                       ; preds = %0
  %10 = load i64* %3, align 8, !dbg !7537         ; [#uses=1 type=i64] [debug line = 170:2]
  %11 = icmp ult i64 %10, 2, !dbg !7537           ; [#uses=1 type=i1] [debug line = 170:2]
  br i1 %11, label %12, label %18, !dbg !7537     ; [debug line = 170:2]

; <label>:12                                      ; preds = %9
  %13 = load i64* %4, align 8, !dbg !7537         ; [#uses=1 type=i64] [debug line = 170:2]
  %14 = icmp ult i64 %13, 1, !dbg !7537           ; [#uses=1 type=i1] [debug line = 170:2]
  br i1 %14, label %15, label %18, !dbg !7537     ; [debug line = 170:2]

; <label>:15                                      ; preds = %12
  %16 = load i64* %5, align 8, !dbg !7537         ; [#uses=1 type=i64] [debug line = 170:2]
  %17 = icmp ult i64 %16, 1, !dbg !7537           ; [#uses=1 type=i1] [debug line = 170:2]
  br label %18

; <label>:18                                      ; preds = %15, %12, %9, %0
  %19 = phi i1 [ false, %12 ], [ false, %9 ], [ false, %0 ], [ %17, %15 ] ; [#uses=1 type=i1]
  br i1 %19, label %20, label %21

; <label>:20                                      ; preds = %18
  br label %23

; <label>:21                                      ; preds = %18
  call void @__assert_fail(i8* getelementptr inbounds ([85 x i8]* @.str11, i32 0, i32 0), i8* getelementptr inbounds ([29 x i8]* @.str12, i32 0, i32 0), i32 170, i8* getelementptr inbounds ([138 x i8]* @__PRETTY_FUNCTION__._ZN7StencilIiLm2ELm2ELm1ELm1EEclEmmmm, i32 0, i32 0)) noreturn nounwind, !dbg !7538 ; [debug line = 170:122]
  unreachable, !dbg !7538                         ; [debug line = 170:122]
                                                  ; No predecessors!
  br label %23, !dbg !7538                        ; [debug line = 170:122]

; <label>:23                                      ; preds = %22, %20
  %24 = load i64* %2, align 8, !dbg !7539         ; [#uses=1 type=i64] [debug line = 171:9]
  %25 = load i64* %3, align 8, !dbg !7539         ; [#uses=1 type=i64] [debug line = 171:9]
  %26 = load i64* %4, align 8, !dbg !7539         ; [#uses=1 type=i64] [debug line = 171:9]
  %27 = load i64* %5, align 8, !dbg !7539         ; [#uses=1 type=i64] [debug line = 171:9]
  %28 = getelementptr inbounds %struct.Stencil.15* %6, i32 0, i32 0, !dbg !7539 ; [#uses=1 type=[1 x [1 x [2 x [2 x i32]]]]*] [debug line = 171:9]
  %29 = getelementptr inbounds [1 x [1 x [2 x [2 x i32]]]]* %28, i32 0, i64 %27, !dbg !7539 ; [#uses=1 type=[1 x [2 x [2 x i32]]]*] [debug line = 171:9]
  %30 = getelementptr inbounds [1 x [2 x [2 x i32]]]* %29, i32 0, i64 %26, !dbg !7539 ; [#uses=1 type=[2 x [2 x i32]]*] [debug line = 171:9]
  %31 = getelementptr inbounds [2 x [2 x i32]]* %30, i32 0, i64 %25, !dbg !7539 ; [#uses=1 type=[2 x i32]*] [debug line = 171:9]
  %32 = getelementptr inbounds [2 x i32]* %31, i32 0, i64 %24, !dbg !7539 ; [#uses=1 type=i32*] [debug line = 171:9]
  ret i32* %32, !dbg !7539                        ; [debug line = 171:9]
}

; [#uses=5]
define linkonce_odr float @_Z15float_from_bitsj(i32 %bits) nounwind uwtable inlinehint {
  %1 = alloca i32, align 4                        ; [#uses=2 type=i32*]
  %u = alloca %struct.ssdm_int, align 4           ; [#uses=2 type=%struct.ssdm_int*]
  store i32 %bits, i32* %1, align 4
  call void @llvm.dbg.declare(metadata !{i32* %1}, metadata !7540), !dbg !7541 ; [debug line = 54:39] [debug variable = bits]
  call void @llvm.dbg.declare(metadata !{%struct.ssdm_int* %u}, metadata !7542), !dbg !7552 ; [debug line = 58:4] [debug variable = u]
  %2 = load i32* %1, align 4, !dbg !7553          ; [#uses=1 type=i32] [debug line = 59:2]
  %3 = bitcast %struct.ssdm_int* %u to i32*, !dbg !7553 ; [#uses=1 type=i32*] [debug line = 59:2]
  store i32 %2, i32* %3, align 4, !dbg !7553      ; [debug line = 59:2]
  %4 = bitcast %struct.ssdm_int* %u to float*, !dbg !7554 ; [#uses=1 type=float*] [debug line = 60:2]
  %5 = load float* %4, align 4, !dbg !7554        ; [#uses=1 type=float] [debug line = 60:2]
  ret float %5, !dbg !7554                        ; [debug line = 60:2]
}

; [#uses=2]
define linkonce_odr void @_ZN3hls6streamI13PackedStencilIiLm1ELm1ELm1ELm1EEE4readEv(%struct.PackedStencil.8* noalias sret %agg.result, %"class.hls::stream.7"* %this) nounwind uwtable inlinehint alwaysinline align 2 {
  %1 = alloca %"class.hls::stream.7"*, align 8    ; [#uses=2 type=%"class.hls::stream.7"**]
  store %"class.hls::stream.7"* %this, %"class.hls::stream.7"** %1, align 8
  call void @llvm.dbg.declare(metadata !{%"class.hls::stream.7"** %1}, metadata !7555), !dbg !7556 ; [debug line = 129:56] [debug variable = this]
  %2 = load %"class.hls::stream.7"** %1           ; [#uses=1 type=%"class.hls::stream.7"*]
  call void @llvm.dbg.declare(metadata !{%struct.PackedStencil.8* %agg.result}, metadata !7557), !dbg !7559 ; [debug line = 130:22] [debug variable = tmp]
  call void @_ZN13PackedStencilIiLm1ELm1ELm1ELm1EEC1Ev(%struct.PackedStencil.8* %agg.result), !dbg !7560 ; [debug line = 130:25]
  %3 = getelementptr inbounds %"class.hls::stream.7"* %2, i32 0, i32 0, !dbg !7561 ; [#uses=1 type=%struct.PackedStencil.8*] [debug line = 131:9]
  call void (...)* @_ssdm_StreamRead(%struct.PackedStencil.8* %3, %struct.PackedStencil.8* %agg.result) nounwind, !dbg !7561 ; [debug line = 131:9]
  ret void, !dbg !7562                            ; [debug line = 132:9]
}

; [#uses=1]
define linkonce_odr void @_ZN13PackedStencilIiLm1ELm1ELm1ELm1EEcv7StencilIiLm1ELm1ELm1ELm1EEEv(%struct.Stencil.9* noalias sret %agg.result, %struct.PackedStencil.8* %this) nounwind uwtable align 2 {
  %1 = alloca %struct.PackedStencil.8*, align 8   ; [#uses=2 type=%struct.PackedStencil.8**]
  %idx_3 = alloca i64, align 8                    ; [#uses=6 type=i64*]
  %idx_2 = alloca i64, align 8                    ; [#uses=6 type=i64*]
  %idx_1 = alloca i64, align 8                    ; [#uses=6 type=i64*]
  %idx_0 = alloca i64, align 8                    ; [#uses=6 type=i64*]
  %temp = alloca %struct.ap_uint, align 4         ; [#uses=2 type=%struct.ap_uint*]
  %2 = alloca %struct.ap_range_ref, align 8       ; [#uses=2 type=%struct.ap_range_ref*]
  store %struct.PackedStencil.8* %this, %struct.PackedStencil.8** %1, align 8
  call void @llvm.dbg.declare(metadata !{%struct.PackedStencil.8** %1}, metadata !7563), !dbg !7565 ; [debug line = 109:5] [debug variable = this]
  %3 = load %struct.PackedStencil.8** %1          ; [#uses=1 type=%struct.PackedStencil.8*]
  call void (...)* @_ssdm_InlineSelf(i32 0, i8* getelementptr inbounds ([1 x i8]* @.str, i32 0, i32 0)) nounwind, !dbg !7566 ; [debug line = 110:1]
  call void @llvm.dbg.declare(metadata !{%struct.Stencil.9* %agg.result}, metadata !7568), !dbg !7569 ; [debug line = 111:53] [debug variable = res]
  %4 = getelementptr inbounds %struct.Stencil.9* %agg.result, i32 0, i32 0, !dbg !7570 ; [#uses=1 type=[1 x [1 x [1 x [1 x i32]]]]*] [debug line = 112:1]
  %5 = getelementptr inbounds [1 x [1 x [1 x [1 x i32]]]]* %4, i32 0, i32 0, !dbg !7570 ; [#uses=1 type=[1 x [1 x [1 x i32]]]*] [debug line = 112:1]
  call void (...)* @_ssdm_SpecArrayPartition([1 x [1 x [1 x i32]]]* %5, i32 0, i8* getelementptr inbounds ([9 x i8]* @.str4, i32 0, i32 0), i32 0, i8* getelementptr inbounds ([1 x i8]* @.str, i32 0, i32 0)) nounwind, !dbg !7570 ; [debug line = 112:1]
  call void @llvm.dbg.declare(metadata !{i64* %idx_3}, metadata !7571), !dbg !7573 ; [debug line = 114:13] [debug variable = idx_3]
  store i64 0, i64* %idx_3, align 8, !dbg !7574   ; [debug line = 114:22]
  br label %6, !dbg !7574                         ; [debug line = 114:22]

; <label>:6                                       ; preds = %47, %0
  %7 = load i64* %idx_3, align 8, !dbg !7574      ; [#uses=1 type=i64] [debug line = 114:22]
  %8 = icmp ult i64 %7, 1, !dbg !7574             ; [#uses=1 type=i1] [debug line = 114:22]
  br i1 %8, label %9, label %50, !dbg !7574       ; [debug line = 114:22]

; <label>:9                                       ; preds = %6
  call void (...)* @_ssdm_RegionBegin(i8* getelementptr inbounds ([13 x i8]* @.str13, i32 0, i32 0)) nounwind, !dbg !7575 ; [debug line = 116:3]
  call void (...)* @_ssdm_Unroll(i32 0, i32 0, i32 0, i8* getelementptr inbounds ([1 x i8]* @.str, i32 0, i32 0)) nounwind, !dbg !7577 ; [debug line = 115:1]
  call void @llvm.dbg.declare(metadata !{i64* %idx_2}, metadata !7578), !dbg !7580 ; [debug line = 116:13] [debug variable = idx_2]
  store i64 0, i64* %idx_2, align 8, !dbg !7581   ; [debug line = 116:22]
  br label %10, !dbg !7581                        ; [debug line = 116:22]

; <label>:10                                      ; preds = %43, %9
  %11 = load i64* %idx_2, align 8, !dbg !7581     ; [#uses=1 type=i64] [debug line = 116:22]
  %12 = icmp ult i64 %11, 1, !dbg !7581           ; [#uses=1 type=i1] [debug line = 116:22]
  br i1 %12, label %13, label %46, !dbg !7581     ; [debug line = 116:22]

; <label>:13                                      ; preds = %10
  call void (...)* @_ssdm_RegionBegin(i8* getelementptr inbounds ([13 x i8]* @.str14, i32 0, i32 0)) nounwind, !dbg !7582 ; [debug line = 118:3]
  call void (...)* @_ssdm_Unroll(i32 0, i32 0, i32 0, i8* getelementptr inbounds ([1 x i8]* @.str, i32 0, i32 0)) nounwind, !dbg !7584 ; [debug line = 117:1]
  call void @llvm.dbg.declare(metadata !{i64* %idx_1}, metadata !7585), !dbg !7587 ; [debug line = 118:13] [debug variable = idx_1]
  store i64 0, i64* %idx_1, align 8, !dbg !7588   ; [debug line = 118:22]
  br label %14, !dbg !7588                        ; [debug line = 118:22]

; <label>:14                                      ; preds = %39, %13
  %15 = load i64* %idx_1, align 8, !dbg !7588     ; [#uses=1 type=i64] [debug line = 118:22]
  %16 = icmp ult i64 %15, 1, !dbg !7588           ; [#uses=1 type=i1] [debug line = 118:22]
  br i1 %16, label %17, label %42, !dbg !7588     ; [debug line = 118:22]

; <label>:17                                      ; preds = %14
  call void (...)* @_ssdm_RegionBegin(i8* getelementptr inbounds ([13 x i8]* @.str15, i32 0, i32 0)) nounwind, !dbg !7589 ; [debug line = 120:3]
  call void (...)* @_ssdm_Unroll(i32 0, i32 0, i32 0, i8* getelementptr inbounds ([1 x i8]* @.str, i32 0, i32 0)) nounwind, !dbg !7591 ; [debug line = 119:1]
  call void @llvm.dbg.declare(metadata !{i64* %idx_0}, metadata !7592), !dbg !7594 ; [debug line = 120:13] [debug variable = idx_0]
  store i64 0, i64* %idx_0, align 8, !dbg !7595   ; [debug line = 120:22]
  br label %18, !dbg !7595                        ; [debug line = 120:22]

; <label>:18                                      ; preds = %35, %17
  %19 = load i64* %idx_0, align 8, !dbg !7595     ; [#uses=1 type=i64] [debug line = 120:22]
  %20 = icmp ult i64 %19, 1, !dbg !7595           ; [#uses=1 type=i1] [debug line = 120:22]
  br i1 %20, label %21, label %38, !dbg !7595     ; [debug line = 120:22]

; <label>:21                                      ; preds = %18
  call void (...)* @_ssdm_RegionBegin(i8* getelementptr inbounds ([13 x i8]* @.str16, i32 0, i32 0)) nounwind, !dbg !7596 ; [debug line = 120:52]
  call void (...)* @_ssdm_Unroll(i32 0, i32 0, i32 0, i8* getelementptr inbounds ([1 x i8]* @.str, i32 0, i32 0)) nounwind, !dbg !7598 ; [debug line = 121:1]
  call void @llvm.dbg.declare(metadata !{%struct.ap_uint* %temp}, metadata !7599), !dbg !7600 ; [debug line = 122:25] [debug variable = temp]
  %22 = load i64* %idx_0, align 8, !dbg !7601     ; [#uses=1 type=i64] [debug line = 122:32]
  %23 = load i64* %idx_1, align 8, !dbg !7601     ; [#uses=1 type=i64] [debug line = 122:32]
  %24 = load i64* %idx_2, align 8, !dbg !7601     ; [#uses=1 type=i64] [debug line = 122:32]
  %25 = load i64* %idx_3, align 8, !dbg !7601     ; [#uses=1 type=i64] [debug line = 122:32]
  call void @_ZN13PackedStencilIiLm1ELm1ELm1ELm1EEclEmmmm(%struct.ap_range_ref* sret %2, %struct.PackedStencil.8* %3, i64 %22, i64 %23, i64 %24, i64 %25), !dbg !7601 ; [debug line = 122:32]
  call void @_ZN7ap_uintILi32EEC1ILi32ELb0EEERK12ap_range_refIXT_EXT0_EE(%struct.ap_uint* %temp, %struct.ap_range_ref* %2), !dbg !7601 ; [debug line = 122:32]
  %26 = load i64* %idx_0, align 8, !dbg !7602     ; [#uses=1 type=i64] [debug line = 123:13]
  %27 = load i64* %idx_1, align 8, !dbg !7602     ; [#uses=1 type=i64] [debug line = 123:13]
  %28 = load i64* %idx_2, align 8, !dbg !7602     ; [#uses=1 type=i64] [debug line = 123:13]
  %29 = load i64* %idx_3, align 8, !dbg !7602     ; [#uses=1 type=i64] [debug line = 123:13]
  %30 = getelementptr inbounds %struct.Stencil.9* %agg.result, i32 0, i32 0, !dbg !7602 ; [#uses=1 type=[1 x [1 x [1 x [1 x i32]]]]*] [debug line = 123:13]
  %31 = getelementptr inbounds [1 x [1 x [1 x [1 x i32]]]]* %30, i32 0, i64 %29, !dbg !7602 ; [#uses=1 type=[1 x [1 x [1 x i32]]]*] [debug line = 123:13]
  %32 = getelementptr inbounds [1 x [1 x [1 x i32]]]* %31, i32 0, i64 %28, !dbg !7602 ; [#uses=1 type=[1 x [1 x i32]]*] [debug line = 123:13]
  %33 = getelementptr inbounds [1 x [1 x i32]]* %32, i32 0, i64 %27, !dbg !7602 ; [#uses=1 type=[1 x i32]*] [debug line = 123:13]
  %34 = getelementptr inbounds [1 x i32]* %33, i32 0, i64 %26, !dbg !7602 ; [#uses=1 type=i32*] [debug line = 123:13]
  call void @_Z15bitcast_to_typeIiLi32EEvR7ap_uintIXT0_EERT_(%struct.ap_uint* %temp, i32* %34), !dbg !7602 ; [debug line = 123:13]
  call void (...)* @_ssdm_RegionEnd(i8* getelementptr inbounds ([13 x i8]* @.str16, i32 0, i32 0)) nounwind, !dbg !7603 ; [debug line = 124:9]
  br label %35, !dbg !7603                        ; [debug line = 124:9]

; <label>:35                                      ; preds = %21
  %36 = load i64* %idx_0, align 8, !dbg !7604     ; [#uses=1 type=i64] [debug line = 120:42]
  %37 = add i64 %36, 1, !dbg !7604                ; [#uses=1 type=i64] [debug line = 120:42]
  store i64 %37, i64* %idx_0, align 8, !dbg !7604 ; [debug line = 120:42]
  br label %18, !dbg !7604                        ; [debug line = 120:42]

; <label>:38                                      ; preds = %18
  call void (...)* @_ssdm_RegionEnd(i8* getelementptr inbounds ([13 x i8]* @.str15, i32 0, i32 0)) nounwind, !dbg !7605 ; [debug line = 124:9]
  br label %39, !dbg !7605                        ; [debug line = 124:9]

; <label>:39                                      ; preds = %38
  %40 = load i64* %idx_1, align 8, !dbg !7606     ; [#uses=1 type=i64] [debug line = 118:42]
  %41 = add i64 %40, 1, !dbg !7606                ; [#uses=1 type=i64] [debug line = 118:42]
  store i64 %41, i64* %idx_1, align 8, !dbg !7606 ; [debug line = 118:42]
  br label %14, !dbg !7606                        ; [debug line = 118:42]

; <label>:42                                      ; preds = %14
  call void (...)* @_ssdm_RegionEnd(i8* getelementptr inbounds ([13 x i8]* @.str14, i32 0, i32 0)) nounwind, !dbg !7607 ; [debug line = 124:9]
  br label %43, !dbg !7607                        ; [debug line = 124:9]

; <label>:43                                      ; preds = %42
  %44 = load i64* %idx_2, align 8, !dbg !7608     ; [#uses=1 type=i64] [debug line = 116:42]
  %45 = add i64 %44, 1, !dbg !7608                ; [#uses=1 type=i64] [debug line = 116:42]
  store i64 %45, i64* %idx_2, align 8, !dbg !7608 ; [debug line = 116:42]
  br label %10, !dbg !7608                        ; [debug line = 116:42]

; <label>:46                                      ; preds = %10
  call void (...)* @_ssdm_RegionEnd(i8* getelementptr inbounds ([13 x i8]* @.str13, i32 0, i32 0)) nounwind, !dbg !7609 ; [debug line = 124:9]
  br label %47, !dbg !7609                        ; [debug line = 124:9]

; <label>:47                                      ; preds = %46
  %48 = load i64* %idx_3, align 8, !dbg !7610     ; [#uses=1 type=i64] [debug line = 114:42]
  %49 = add i64 %48, 1, !dbg !7610                ; [#uses=1 type=i64] [debug line = 114:42]
  store i64 %49, i64* %idx_3, align 8, !dbg !7610 ; [debug line = 114:42]
  br label %6, !dbg !7610                         ; [debug line = 114:42]

; <label>:50                                      ; preds = %6
  ret void, !dbg !7611                            ; [debug line = 125:9]
}

; [#uses=1]
define linkonce_odr i32* @_ZN7StencilIjLm1ELm1ELm1ELm1EEclEmmmm(%struct.Stencil.9* %this, i64 %index_0, i64 %index_1, i64 %index_2, i64 %index_3) nounwind uwtable inlinehint align 2 {
  %1 = alloca %struct.Stencil.9*, align 8         ; [#uses=2 type=%struct.Stencil.9**]
  %2 = alloca i64, align 8                        ; [#uses=3 type=i64*]
  %3 = alloca i64, align 8                        ; [#uses=3 type=i64*]
  %4 = alloca i64, align 8                        ; [#uses=3 type=i64*]
  %5 = alloca i64, align 8                        ; [#uses=3 type=i64*]
  store %struct.Stencil.9* %this, %struct.Stencil.9** %1, align 8
  call void @llvm.dbg.declare(metadata !{%struct.Stencil.9** %1}, metadata !7612), !dbg !7614 ; [debug line = 168:15] [debug variable = this]
  store i64 %index_0, i64* %2, align 8
  call void @llvm.dbg.declare(metadata !{i64* %2}, metadata !7615), !dbg !7616 ; [debug line = 168:33] [debug variable = index_0]
  store i64 %index_1, i64* %3, align 8
  call void @llvm.dbg.declare(metadata !{i64* %3}, metadata !7617), !dbg !7618 ; [debug line = 168:49] [debug variable = index_1]
  store i64 %index_2, i64* %4, align 8
  call void @llvm.dbg.declare(metadata !{i64* %4}, metadata !7619), !dbg !7620 ; [debug line = 168:69] [debug variable = index_2]
  store i64 %index_3, i64* %5, align 8
  call void @llvm.dbg.declare(metadata !{i64* %5}, metadata !7621), !dbg !7622 ; [debug line = 168:89] [debug variable = index_3]
  %6 = load %struct.Stencil.9** %1                ; [#uses=1 type=%struct.Stencil.9*]
  call void (...)* @_ssdm_InlineSelf(i32 0, i8* getelementptr inbounds ([1 x i8]* @.str, i32 0, i32 0)) nounwind, !dbg !7623 ; [debug line = 169:1]
  %7 = load i64* %2, align 8, !dbg !7625          ; [#uses=1 type=i64] [debug line = 170:2]
  %8 = icmp ult i64 %7, 1, !dbg !7625             ; [#uses=1 type=i1] [debug line = 170:2]
  br i1 %8, label %9, label %18, !dbg !7625       ; [debug line = 170:2]

; <label>:9                                       ; preds = %0
  %10 = load i64* %3, align 8, !dbg !7625         ; [#uses=1 type=i64] [debug line = 170:2]
  %11 = icmp ult i64 %10, 1, !dbg !7625           ; [#uses=1 type=i1] [debug line = 170:2]
  br i1 %11, label %12, label %18, !dbg !7625     ; [debug line = 170:2]

; <label>:12                                      ; preds = %9
  %13 = load i64* %4, align 8, !dbg !7625         ; [#uses=1 type=i64] [debug line = 170:2]
  %14 = icmp ult i64 %13, 1, !dbg !7625           ; [#uses=1 type=i1] [debug line = 170:2]
  br i1 %14, label %15, label %18, !dbg !7625     ; [debug line = 170:2]

; <label>:15                                      ; preds = %12
  %16 = load i64* %5, align 8, !dbg !7625         ; [#uses=1 type=i64] [debug line = 170:2]
  %17 = icmp ult i64 %16, 1, !dbg !7625           ; [#uses=1 type=i1] [debug line = 170:2]
  br label %18

; <label>:18                                      ; preds = %15, %12, %9, %0
  %19 = phi i1 [ false, %12 ], [ false, %9 ], [ false, %0 ], [ %17, %15 ] ; [#uses=1 type=i1]
  br i1 %19, label %20, label %21

; <label>:20                                      ; preds = %18
  br label %23

; <label>:21                                      ; preds = %18
  call void @__assert_fail(i8* getelementptr inbounds ([85 x i8]* @.str11, i32 0, i32 0), i8* getelementptr inbounds ([29 x i8]* @.str12, i32 0, i32 0), i32 170, i8* getelementptr inbounds ([156 x i8]* @__PRETTY_FUNCTION__._ZN7StencilIjLm1ELm1ELm1ELm1EEclEmmmm, i32 0, i32 0)) noreturn nounwind, !dbg !7626 ; [debug line = 170:122]
  unreachable, !dbg !7626                         ; [debug line = 170:122]
                                                  ; No predecessors!
  br label %23, !dbg !7626                        ; [debug line = 170:122]

; <label>:23                                      ; preds = %22, %20
  %24 = load i64* %2, align 8, !dbg !7627         ; [#uses=1 type=i64] [debug line = 171:9]
  %25 = load i64* %3, align 8, !dbg !7627         ; [#uses=1 type=i64] [debug line = 171:9]
  %26 = load i64* %4, align 8, !dbg !7627         ; [#uses=1 type=i64] [debug line = 171:9]
  %27 = load i64* %5, align 8, !dbg !7627         ; [#uses=1 type=i64] [debug line = 171:9]
  %28 = getelementptr inbounds %struct.Stencil.9* %6, i32 0, i32 0, !dbg !7627 ; [#uses=1 type=[1 x [1 x [1 x [1 x i32]]]]*] [debug line = 171:9]
  %29 = getelementptr inbounds [1 x [1 x [1 x [1 x i32]]]]* %28, i32 0, i64 %27, !dbg !7627 ; [#uses=1 type=[1 x [1 x [1 x i32]]]*] [debug line = 171:9]
  %30 = getelementptr inbounds [1 x [1 x [1 x i32]]]* %29, i32 0, i64 %26, !dbg !7627 ; [#uses=1 type=[1 x [1 x i32]]*] [debug line = 171:9]
  %31 = getelementptr inbounds [1 x [1 x i32]]* %30, i32 0, i64 %25, !dbg !7627 ; [#uses=1 type=[1 x i32]*] [debug line = 171:9]
  %32 = getelementptr inbounds [1 x i32]* %31, i32 0, i64 %24, !dbg !7627 ; [#uses=1 type=i32*] [debug line = 171:9]
  ret i32* %32, !dbg !7627                        ; [debug line = 171:9]
}

; [#uses=1]
define linkonce_odr void @_ZN7StencilIjLm1ELm1ELm1ELm1EEcv16AxiPackedStencilIjLm1ELm1ELm1ELm1EEEv(%struct.AxiPackedStencil* noalias sret %agg.result, %struct.Stencil.9* %this) nounwind uwtable align 2 {
  %1 = alloca %struct.Stencil.9*, align 8         ; [#uses=2 type=%struct.Stencil.9**]
  %res = alloca %struct.PackedStencil.8, align 4  ; [#uses=2 type=%struct.PackedStencil.8*]
  store %struct.Stencil.9* %this, %struct.Stencil.9** %1, align 8
  call void @llvm.dbg.declare(metadata !{%struct.Stencil.9** %1}, metadata !7628), !dbg !7629 ; [debug line = 203:5] [debug variable = this]
  %2 = load %struct.Stencil.9** %1                ; [#uses=1 type=%struct.Stencil.9*]
  call void (...)* @_ssdm_InlineSelf(i32 0, i8* getelementptr inbounds ([1 x i8]* @.str, i32 0, i32 0)) nounwind, !dbg !7630 ; [debug line = 204:1]
  call void @llvm.dbg.declare(metadata !{%struct.PackedStencil.8* %res}, metadata !7632), !dbg !7633 ; [debug line = 205:59] [debug variable = res]
  call void @_ZN7StencilIjLm1ELm1ELm1ELm1EEcv13PackedStencilIjLm1ELm1ELm1ELm1EEEv(%struct.PackedStencil.8* sret %res, %struct.Stencil.9* %2), !dbg !7634 ; [debug line = 205:65]
  call void @_ZN13PackedStencilIjLm1ELm1ELm1ELm1EEcv16AxiPackedStencilIjLm1ELm1ELm1ELm1EEEv(%struct.AxiPackedStencil* sret %agg.result, %struct.PackedStencil.8* %res), !dbg !7635 ; [debug line = 206:77]
  ret void, !dbg !7635                            ; [debug line = 206:77]
}

; [#uses=2]
define linkonce_odr %struct.ap_uint.0* @_ZN7ap_uintILi1EEaSERKS0_(%struct.ap_uint.0* %this, %struct.ap_uint.0* %op2) nounwind uwtable inlinehint alwaysinline align 2 {
  %1 = alloca %struct.ap_uint.0*, align 8         ; [#uses=2 type=%struct.ap_uint.0**]
  %2 = alloca %struct.ap_uint.0*, align 8         ; [#uses=2 type=%struct.ap_uint.0**]
  store %struct.ap_uint.0* %this, %struct.ap_uint.0** %1, align 8
  call void @llvm.dbg.declare(metadata !{%struct.ap_uint.0** %1}, metadata !7636), !dbg !7638 ; [debug line = 279:53] [debug variable = this]
  store %struct.ap_uint.0* %op2, %struct.ap_uint.0** %2, align 8
  call void @llvm.dbg.declare(metadata !{%struct.ap_uint.0** %2}, metadata !7639), !dbg !7640 ; [debug line = 279:87] [debug variable = op2]
  %3 = load %struct.ap_uint.0** %1                ; [#uses=2 type=%struct.ap_uint.0*]
  %4 = load %struct.ap_uint.0** %2, align 8, !dbg !7641 ; [#uses=1 type=%struct.ap_uint.0*] [debug line = 280:10]
  %5 = bitcast %struct.ap_uint.0* %4 to %struct.ssdm_int.2*, !dbg !7641 ; [#uses=1 type=%struct.ssdm_int.2*] [debug line = 280:10]
  %6 = getelementptr inbounds %struct.ssdm_int.2* %5, i32 0, i32 0, !dbg !7641 ; [#uses=1 type=i1*] [debug line = 280:10]
  %7 = load i1* %6, align 1, !dbg !7641           ; [#uses=1 type=i1] [debug line = 280:10]
  %8 = bitcast %struct.ap_uint.0* %3 to %struct.ap_int_base.1*, !dbg !7641 ; [#uses=1 type=%struct.ap_int_base.1*] [debug line = 280:10]
  %9 = bitcast %struct.ap_int_base.1* %8 to %struct.ssdm_int.2*, !dbg !7641 ; [#uses=1 type=%struct.ssdm_int.2*] [debug line = 280:10]
  %10 = getelementptr inbounds %struct.ssdm_int.2* %9, i32 0, i32 0, !dbg !7641 ; [#uses=1 type=i1*] [debug line = 280:10]
  store i1 %7, i1* %10, align 1, !dbg !7641       ; [debug line = 280:10]
  ret %struct.ap_uint.0* %3, !dbg !7643           ; [debug line = 281:10]
}

; [#uses=2]
define linkonce_odr void @_ZN7ap_uintILi1EEC1Ei(%struct.ap_uint.0* %this, i32 %val) unnamed_addr nounwind uwtable inlinehint alwaysinline align 2 {
  %1 = alloca %struct.ap_uint.0*, align 8         ; [#uses=2 type=%struct.ap_uint.0**]
  %2 = alloca i32, align 4                        ; [#uses=2 type=i32*]
  store %struct.ap_uint.0* %this, %struct.ap_uint.0** %1, align 8
  call void @llvm.dbg.declare(metadata !{%struct.ap_uint.0** %1}, metadata !7644), !dbg !7645 ; [debug line = 252:43] [debug variable = this]
  store i32 %val, i32* %2, align 4
  call void @llvm.dbg.declare(metadata !{i32* %2}, metadata !7646), !dbg !7647 ; [debug line = 252:55] [debug variable = val]
  %3 = load %struct.ap_uint.0** %1                ; [#uses=1 type=%struct.ap_uint.0*]
  %4 = load i32* %2, align 4, !dbg !7648          ; [#uses=1 type=i32] [debug line = 252:77]
  call void @_ZN7ap_uintILi1EEC2Ei(%struct.ap_uint.0* %3, i32 %4), !dbg !7648 ; [debug line = 252:77]
  ret void, !dbg !7648                            ; [debug line = 252:77]
}

; [#uses=1]
define linkonce_odr void @_ZN3hls6streamI16AxiPackedStencilIjLm1ELm1ELm1ELm1EEE5writeERKS2_(%"class.hls::stream"* %this, %struct.AxiPackedStencil* %din) nounwind uwtable inlinehint alwaysinline align 2 {
  %1 = alloca %"class.hls::stream"*, align 8      ; [#uses=2 type=%"class.hls::stream"**]
  %2 = alloca %struct.AxiPackedStencil*, align 8  ; [#uses=2 type=%struct.AxiPackedStencil**]
  %tmp = alloca %struct.AxiPackedStencil, align 4 ; [#uses=4 type=%struct.AxiPackedStencil*]
  store %"class.hls::stream"* %this, %"class.hls::stream"** %1, align 8
  call void @llvm.dbg.declare(metadata !{%"class.hls::stream"** %1}, metadata !7649), !dbg !7651 ; [debug line = 144:48] [debug variable = this]
  store %struct.AxiPackedStencil* %din, %struct.AxiPackedStencil** %2, align 8
  call void @llvm.dbg.declare(metadata !{%struct.AxiPackedStencil** %2}, metadata !7652), !dbg !7653 ; [debug line = 144:74] [debug variable = din]
  %3 = load %"class.hls::stream"** %1             ; [#uses=1 type=%"class.hls::stream"*]
  call void @llvm.dbg.declare(metadata !{%struct.AxiPackedStencil* %tmp}, metadata !7654), !dbg !7656 ; [debug line = 145:22] [debug variable = tmp]
  %4 = load %struct.AxiPackedStencil** %2, align 8, !dbg !7657 ; [#uses=3 type=%struct.AxiPackedStencil*] [debug line = 145:31]
  %5 = bitcast %struct.AxiPackedStencil* %tmp to i8*, !dbg !7657 ; [#uses=0 type=i8*] [debug line = 145:31]
  %6 = bitcast %struct.AxiPackedStencil* %4 to i8*, !dbg !7657 ; [#uses=0 type=i8*] [debug line = 145:31]
  %7 = getelementptr inbounds %struct.AxiPackedStencil* %tmp, i32 0, i32 0, !dbg !7657 ; [#uses=1 type=%struct.ap_uint*] [debug line = 145:31]
  %8 = getelementptr inbounds %struct.AxiPackedStencil* %4, i32 0, i32 0, !dbg !7657 ; [#uses=1 type=%struct.ap_uint*] [debug line = 145:31]
  %9 = getelementptr inbounds %struct.ap_uint* %7, i32 0, i32 0, !dbg !7657 ; [#uses=1 type=%struct.ap_int_base*] [debug line = 145:31]
  %10 = getelementptr inbounds %struct.ap_uint* %8, i32 0, i32 0, !dbg !7657 ; [#uses=1 type=%struct.ap_int_base*] [debug line = 145:31]
  %11 = getelementptr inbounds %struct.ap_int_base* %9, i32 0, i32 0, !dbg !7657 ; [#uses=1 type=%struct.ssdm_int*] [debug line = 145:31]
  %12 = getelementptr inbounds %struct.ap_int_base* %10, i32 0, i32 0, !dbg !7657 ; [#uses=1 type=%struct.ssdm_int*] [debug line = 145:31]
  %13 = getelementptr inbounds %struct.ssdm_int* %11, i32 0, i32 0, !dbg !7657 ; [#uses=1 type=i32*] [debug line = 145:31]
  %14 = getelementptr inbounds %struct.ssdm_int* %12, i32 0, i32 0, !dbg !7657 ; [#uses=1 type=i32*] [debug line = 145:31]
  %15 = load i32* %14, !dbg !7657                 ; [#uses=1 type=i32] [debug line = 145:31]
  store i32 %15, i32* %13, !dbg !7657             ; [debug line = 145:31]
  %16 = getelementptr inbounds %struct.AxiPackedStencil* %tmp, i32 0, i32 1, !dbg !7657 ; [#uses=1 type=%struct.ap_uint.0*] [debug line = 145:31]
  %17 = getelementptr inbounds %struct.AxiPackedStencil* %4, i32 0, i32 1, !dbg !7657 ; [#uses=1 type=%struct.ap_uint.0*] [debug line = 145:31]
  %18 = getelementptr inbounds %struct.ap_uint.0* %16, i32 0, i32 0, !dbg !7657 ; [#uses=1 type=%struct.ap_int_base.1*] [debug line = 145:31]
  %19 = getelementptr inbounds %struct.ap_uint.0* %17, i32 0, i32 0, !dbg !7657 ; [#uses=1 type=%struct.ap_int_base.1*] [debug line = 145:31]
  %20 = getelementptr inbounds %struct.ap_int_base.1* %18, i32 0, i32 0, !dbg !7657 ; [#uses=1 type=%struct.ssdm_int.2*] [debug line = 145:31]
  %21 = getelementptr inbounds %struct.ap_int_base.1* %19, i32 0, i32 0, !dbg !7657 ; [#uses=1 type=%struct.ssdm_int.2*] [debug line = 145:31]
  %22 = getelementptr inbounds %struct.ssdm_int.2* %20, i32 0, i32 0, !dbg !7657 ; [#uses=1 type=i1*] [debug line = 145:31]
  %23 = getelementptr inbounds %struct.ssdm_int.2* %21, i32 0, i32 0, !dbg !7657 ; [#uses=1 type=i1*] [debug line = 145:31]
  %24 = load i1* %23, !dbg !7657                  ; [#uses=1 type=i1] [debug line = 145:31]
  store i1 %24, i1* %22, !dbg !7657               ; [debug line = 145:31]
  %25 = getelementptr inbounds %"class.hls::stream"* %3, i32 0, i32 0, !dbg !7658 ; [#uses=1 type=%struct.AxiPackedStencil*] [debug line = 146:9]
  call void (...)* @_ssdm_StreamWrite(%struct.AxiPackedStencil* %25, %struct.AxiPackedStencil* %tmp) nounwind, !dbg !7658 ; [debug line = 146:9]
  ret void, !dbg !7659                            ; [debug line = 147:5]
}

; [#uses=7]
declare void @_ssdm_StreamWrite(...) nounwind

; [#uses=1]
define linkonce_odr void @_ZN7ap_uintILi1EEC2Ei(%struct.ap_uint.0* %this, i32 %val) unnamed_addr nounwind uwtable inlinehint alwaysinline align 2 {
  %1 = alloca %struct.ap_uint.0*, align 8         ; [#uses=2 type=%struct.ap_uint.0**]
  %2 = alloca i32, align 4                        ; [#uses=2 type=i32*]
  store %struct.ap_uint.0* %this, %struct.ap_uint.0** %1, align 8
  call void @llvm.dbg.declare(metadata !{%struct.ap_uint.0** %1}, metadata !7660), !dbg !7661 ; [debug line = 252:43] [debug variable = this]
  store i32 %val, i32* %2, align 4
  call void @llvm.dbg.declare(metadata !{i32* %2}, metadata !7662), !dbg !7663 ; [debug line = 252:55] [debug variable = val]
  %3 = load %struct.ap_uint.0** %1                ; [#uses=2 type=%struct.ap_uint.0*]
  %4 = bitcast %struct.ap_uint.0* %3 to %struct.ap_int_base.1*, !dbg !7664 ; [#uses=1 type=%struct.ap_int_base.1*] [debug line = 252:60]
  call void @_ZN11ap_int_baseILi1ELb0ELb1EEC2Ev(%struct.ap_int_base.1* %4), !dbg !7664 ; [debug line = 252:60]
  %5 = load i32* %2, align 4, !dbg !7665          ; [#uses=1 type=i32] [debug line = 252:62]
  %6 = trunc i32 %5 to i1, !dbg !7665             ; [#uses=1 type=i1] [debug line = 252:62]
  %7 = bitcast %struct.ap_uint.0* %3 to %struct.ap_int_base.1*, !dbg !7665 ; [#uses=1 type=%struct.ap_int_base.1*] [debug line = 252:62]
  %8 = bitcast %struct.ap_int_base.1* %7 to %struct.ssdm_int.2*, !dbg !7665 ; [#uses=1 type=%struct.ssdm_int.2*] [debug line = 252:62]
  %9 = getelementptr inbounds %struct.ssdm_int.2* %8, i32 0, i32 0, !dbg !7665 ; [#uses=1 type=i1*] [debug line = 252:62]
  store i1 %6, i1* %9, align 1, !dbg !7665        ; [debug line = 252:62]
  ret void, !dbg !7667                            ; [debug line = 252:77]
}

; [#uses=2]
define linkonce_odr void @_ZN11ap_int_baseILi1ELb0ELb1EEC2Ev(%struct.ap_int_base.1* %this) unnamed_addr nounwind uwtable inlinehint alwaysinline align 2 {
  %1 = alloca %struct.ap_int_base.1*, align 8     ; [#uses=2 type=%struct.ap_int_base.1**]
  store %struct.ap_int_base.1* %this, %struct.ap_int_base.1** %1, align 8
  call void @llvm.dbg.declare(metadata !{%struct.ap_int_base.1** %1}, metadata !7668), !dbg !7670 ; [debug line = 1439:42] [debug variable = this]
  %2 = load %struct.ap_int_base.1** %1            ; [#uses=1 type=%struct.ap_int_base.1*]
  %3 = bitcast %struct.ap_int_base.1* %2 to %struct.ssdm_int.2*, !dbg !7671 ; [#uses=1 type=%struct.ssdm_int.2*] [debug line = 1439:56]
  call void @_ZN8ssdm_intILi1ELb0EEC2Ev(%struct.ssdm_int.2* %3), !dbg !7671 ; [debug line = 1439:56]
  ret void, !dbg !7672                            ; [debug line = 1445:4]
}

; [#uses=1]
define linkonce_odr void @_ZN8ssdm_intILi1ELb0EEC2Ev(%struct.ssdm_int.2* %this) unnamed_addr nounwind uwtable inlinehint alwaysinline align 2 {
  %1 = alloca %struct.ssdm_int.2*, align 8        ; [#uses=2 type=%struct.ssdm_int.2**]
  store %struct.ssdm_int.2* %this, %struct.ssdm_int.2** %1, align 8
  call void @llvm.dbg.declare(metadata !{%struct.ssdm_int.2** %1}, metadata !7674), !dbg !7676 ; [debug line = 3:0] [debug variable = this]
  %2 = load %struct.ssdm_int.2** %1               ; [#uses=0 type=%struct.ssdm_int.2*]
  ret void, !dbg !7677                            ; [debug line = 3:0]
}

; [#uses=37]
declare void @_ssdm_InlineSelf(...) nounwind

; [#uses=1]
define linkonce_odr void @_ZN7StencilIjLm1ELm1ELm1ELm1EEcv13PackedStencilIjLm1ELm1ELm1ELm1EEEv(%struct.PackedStencil.8* noalias sret %agg.result, %struct.Stencil.9* %this) nounwind uwtable align 2 {
  %1 = alloca %struct.Stencil.9*, align 8         ; [#uses=2 type=%struct.Stencil.9**]
  %word_length = alloca i64, align 8              ; [#uses=1 type=i64*]
  %idx_3 = alloca i64, align 8                    ; [#uses=6 type=i64*]
  %idx_2 = alloca i64, align 8                    ; [#uses=6 type=i64*]
  %idx_1 = alloca i64, align 8                    ; [#uses=6 type=i64*]
  %idx_0 = alloca i64, align 8                    ; [#uses=6 type=i64*]
  %temp = alloca %struct.ap_uint, align 4         ; [#uses=2 type=%struct.ap_uint*]
  %2 = alloca %struct.ap_range_ref, align 8       ; [#uses=2 type=%struct.ap_range_ref*]
  store %struct.Stencil.9* %this, %struct.Stencil.9** %1, align 8
  call void @llvm.dbg.declare(metadata !{%struct.Stencil.9** %1}, metadata !7679), !dbg !7680 ; [debug line = 183:5] [debug variable = this]
  %3 = load %struct.Stencil.9** %1                ; [#uses=1 type=%struct.Stencil.9*]
  call void (...)* @_ssdm_InlineSelf(i32 0, i8* getelementptr inbounds ([1 x i8]* @.str, i32 0, i32 0)) nounwind, !dbg !7681 ; [debug line = 184:1]
  call void @llvm.dbg.declare(metadata !{%struct.PackedStencil.8* %agg.result}, metadata !7683), !dbg !7684 ; [debug line = 185:59] [debug variable = res]
  call void @_ZN13PackedStencilIjLm1ELm1ELm1ELm1EEC1Ev(%struct.PackedStencil.8* %agg.result), !dbg !7685 ; [debug line = 185:62]
  call void @llvm.dbg.declare(metadata !{i64* %word_length}, metadata !7686), !dbg !7687 ; [debug line = 186:22] [debug variable = word_length]
  store i64 32, i64* %word_length, align 8, !dbg !7688 ; [debug line = 186:49]
  call void @llvm.dbg.declare(metadata !{i64* %idx_3}, metadata !7689), !dbg !7691 ; [debug line = 188:20] [debug variable = idx_3]
  store i64 0, i64* %idx_3, align 8, !dbg !7692   ; [debug line = 188:29]
  br label %4, !dbg !7692                         ; [debug line = 188:29]

; <label>:4                                       ; preds = %49, %0
  %5 = load i64* %idx_3, align 8, !dbg !7692      ; [#uses=1 type=i64] [debug line = 188:29]
  %6 = icmp ult i64 %5, 1, !dbg !7692             ; [#uses=1 type=i1] [debug line = 188:29]
  br i1 %6, label %7, label %52, !dbg !7692       ; [debug line = 188:29]

; <label>:7                                       ; preds = %4
  call void (...)* @_ssdm_RegionBegin(i8* getelementptr inbounds ([13 x i8]* @.str7, i32 0, i32 0)) nounwind, !dbg !7693 ; [debug line = 190:3]
  call void (...)* @_ssdm_Unroll(i32 0, i32 0, i32 0, i8* getelementptr inbounds ([1 x i8]* @.str, i32 0, i32 0)) nounwind, !dbg !7695 ; [debug line = 189:1]
  call void @llvm.dbg.declare(metadata !{i64* %idx_2}, metadata !7696), !dbg !7698 ; [debug line = 190:13] [debug variable = idx_2]
  store i64 0, i64* %idx_2, align 8, !dbg !7699   ; [debug line = 190:22]
  br label %8, !dbg !7699                         ; [debug line = 190:22]

; <label>:8                                       ; preds = %45, %7
  %9 = load i64* %idx_2, align 8, !dbg !7699      ; [#uses=1 type=i64] [debug line = 190:22]
  %10 = icmp ult i64 %9, 1, !dbg !7699            ; [#uses=1 type=i1] [debug line = 190:22]
  br i1 %10, label %11, label %48, !dbg !7699     ; [debug line = 190:22]

; <label>:11                                      ; preds = %8
  call void (...)* @_ssdm_RegionBegin(i8* getelementptr inbounds ([13 x i8]* @.str8, i32 0, i32 0)) nounwind, !dbg !7700 ; [debug line = 192:3]
  call void (...)* @_ssdm_Unroll(i32 0, i32 0, i32 0, i8* getelementptr inbounds ([1 x i8]* @.str, i32 0, i32 0)) nounwind, !dbg !7702 ; [debug line = 191:1]
  call void @llvm.dbg.declare(metadata !{i64* %idx_1}, metadata !7703), !dbg !7705 ; [debug line = 192:13] [debug variable = idx_1]
  store i64 0, i64* %idx_1, align 8, !dbg !7706   ; [debug line = 192:22]
  br label %12, !dbg !7706                        ; [debug line = 192:22]

; <label>:12                                      ; preds = %41, %11
  %13 = load i64* %idx_1, align 8, !dbg !7706     ; [#uses=1 type=i64] [debug line = 192:22]
  %14 = icmp ult i64 %13, 1, !dbg !7706           ; [#uses=1 type=i1] [debug line = 192:22]
  br i1 %14, label %15, label %44, !dbg !7706     ; [debug line = 192:22]

; <label>:15                                      ; preds = %12
  call void (...)* @_ssdm_RegionBegin(i8* getelementptr inbounds ([13 x i8]* @.str9, i32 0, i32 0)) nounwind, !dbg !7707 ; [debug line = 194:3]
  call void (...)* @_ssdm_Unroll(i32 0, i32 0, i32 0, i8* getelementptr inbounds ([1 x i8]* @.str, i32 0, i32 0)) nounwind, !dbg !7709 ; [debug line = 193:1]
  call void @llvm.dbg.declare(metadata !{i64* %idx_0}, metadata !7710), !dbg !7712 ; [debug line = 194:13] [debug variable = idx_0]
  store i64 0, i64* %idx_0, align 8, !dbg !7713   ; [debug line = 194:22]
  br label %16, !dbg !7713                        ; [debug line = 194:22]

; <label>:16                                      ; preds = %37, %15
  %17 = load i64* %idx_0, align 8, !dbg !7713     ; [#uses=1 type=i64] [debug line = 194:22]
  %18 = icmp ult i64 %17, 1, !dbg !7713           ; [#uses=1 type=i1] [debug line = 194:22]
  br i1 %18, label %19, label %40, !dbg !7713     ; [debug line = 194:22]

; <label>:19                                      ; preds = %16
  call void (...)* @_ssdm_RegionBegin(i8* getelementptr inbounds ([13 x i8]* @.str10, i32 0, i32 0)) nounwind, !dbg !7714 ; [debug line = 194:52]
  call void (...)* @_ssdm_Unroll(i32 0, i32 0, i32 0, i8* getelementptr inbounds ([1 x i8]* @.str, i32 0, i32 0)) nounwind, !dbg !7716 ; [debug line = 195:1]
  call void @llvm.dbg.declare(metadata !{%struct.ap_uint* %temp}, metadata !7717), !dbg !7718 ; [debug line = 196:23] [debug variable = temp]
  %20 = load i64* %idx_0, align 8, !dbg !7719     ; [#uses=1 type=i64] [debug line = 196:30]
  %21 = load i64* %idx_1, align 8, !dbg !7719     ; [#uses=1 type=i64] [debug line = 196:30]
  %22 = load i64* %idx_2, align 8, !dbg !7719     ; [#uses=1 type=i64] [debug line = 196:30]
  %23 = load i64* %idx_3, align 8, !dbg !7719     ; [#uses=1 type=i64] [debug line = 196:30]
  %24 = getelementptr inbounds %struct.Stencil.9* %3, i32 0, i32 0, !dbg !7719 ; [#uses=1 type=[1 x [1 x [1 x [1 x i32]]]]*] [debug line = 196:30]
  %25 = getelementptr inbounds [1 x [1 x [1 x [1 x i32]]]]* %24, i32 0, i64 %23, !dbg !7719 ; [#uses=1 type=[1 x [1 x [1 x i32]]]*] [debug line = 196:30]
  %26 = getelementptr inbounds [1 x [1 x [1 x i32]]]* %25, i32 0, i64 %22, !dbg !7719 ; [#uses=1 type=[1 x [1 x i32]]*] [debug line = 196:30]
  %27 = getelementptr inbounds [1 x [1 x i32]]* %26, i32 0, i64 %21, !dbg !7719 ; [#uses=1 type=[1 x i32]*] [debug line = 196:30]
  %28 = getelementptr inbounds [1 x i32]* %27, i32 0, i64 %20, !dbg !7719 ; [#uses=1 type=i32*] [debug line = 196:30]
  %29 = load i32* %28, align 4, !dbg !7719        ; [#uses=1 type=i32] [debug line = 196:30]
  %30 = call i32 @_Z15bitcast_to_uintIjET_S0_(i32 %29), !dbg !7719 ; [#uses=1 type=i32] [debug line = 196:30]
  call void @_ZN7ap_uintILi32EEC1Ej(%struct.ap_uint* %temp, i32 %30), !dbg !7719 ; [debug line = 196:30]
  %31 = load i64* %idx_0, align 8, !dbg !7720     ; [#uses=1 type=i64] [debug line = 197:13]
  %32 = load i64* %idx_1, align 8, !dbg !7720     ; [#uses=1 type=i64] [debug line = 197:13]
  %33 = load i64* %idx_2, align 8, !dbg !7720     ; [#uses=1 type=i64] [debug line = 197:13]
  %34 = load i64* %idx_3, align 8, !dbg !7720     ; [#uses=1 type=i64] [debug line = 197:13]
  call void @_ZN13PackedStencilIjLm1ELm1ELm1ELm1EEclEmmmm(%struct.ap_range_ref* sret %2, %struct.PackedStencil.8* %agg.result, i64 %31, i64 %32, i64 %33, i64 %34), !dbg !7720 ; [debug line = 197:13]
  %35 = bitcast %struct.ap_uint* %temp to %struct.ap_int_base*, !dbg !7720 ; [#uses=1 type=%struct.ap_int_base*] [debug line = 197:13]
  %36 = call %struct.ap_range_ref* @_ZN12ap_range_refILi32ELb0EEaSILi32ELb0EEERS0_RK11ap_int_baseIXT_EXT0_EXleT_Li64EEE(%struct.ap_range_ref* %2, %struct.ap_int_base* %35), !dbg !7720 ; [#uses=0 type=%struct.ap_range_ref*] [debug line = 197:13]
  call void (...)* @_ssdm_RegionEnd(i8* getelementptr inbounds ([13 x i8]* @.str10, i32 0, i32 0)) nounwind, !dbg !7721 ; [debug line = 198:9]
  br label %37, !dbg !7721                        ; [debug line = 198:9]

; <label>:37                                      ; preds = %19
  %38 = load i64* %idx_0, align 8, !dbg !7722     ; [#uses=1 type=i64] [debug line = 194:42]
  %39 = add i64 %38, 1, !dbg !7722                ; [#uses=1 type=i64] [debug line = 194:42]
  store i64 %39, i64* %idx_0, align 8, !dbg !7722 ; [debug line = 194:42]
  br label %16, !dbg !7722                        ; [debug line = 194:42]

; <label>:40                                      ; preds = %16
  call void (...)* @_ssdm_RegionEnd(i8* getelementptr inbounds ([13 x i8]* @.str9, i32 0, i32 0)) nounwind, !dbg !7723 ; [debug line = 198:9]
  br label %41, !dbg !7723                        ; [debug line = 198:9]

; <label>:41                                      ; preds = %40
  %42 = load i64* %idx_1, align 8, !dbg !7724     ; [#uses=1 type=i64] [debug line = 192:42]
  %43 = add i64 %42, 1, !dbg !7724                ; [#uses=1 type=i64] [debug line = 192:42]
  store i64 %43, i64* %idx_1, align 8, !dbg !7724 ; [debug line = 192:42]
  br label %12, !dbg !7724                        ; [debug line = 192:42]

; <label>:44                                      ; preds = %12
  call void (...)* @_ssdm_RegionEnd(i8* getelementptr inbounds ([13 x i8]* @.str8, i32 0, i32 0)) nounwind, !dbg !7725 ; [debug line = 198:9]
  br label %45, !dbg !7725                        ; [debug line = 198:9]

; <label>:45                                      ; preds = %44
  %46 = load i64* %idx_2, align 8, !dbg !7726     ; [#uses=1 type=i64] [debug line = 190:42]
  %47 = add i64 %46, 1, !dbg !7726                ; [#uses=1 type=i64] [debug line = 190:42]
  store i64 %47, i64* %idx_2, align 8, !dbg !7726 ; [debug line = 190:42]
  br label %8, !dbg !7726                         ; [debug line = 190:42]

; <label>:48                                      ; preds = %8
  call void (...)* @_ssdm_RegionEnd(i8* getelementptr inbounds ([13 x i8]* @.str7, i32 0, i32 0)) nounwind, !dbg !7727 ; [debug line = 198:9]
  br label %49, !dbg !7727                        ; [debug line = 198:9]

; <label>:49                                      ; preds = %48
  %50 = load i64* %idx_3, align 8, !dbg !7728     ; [#uses=1 type=i64] [debug line = 188:49]
  %51 = add i64 %50, 1, !dbg !7728                ; [#uses=1 type=i64] [debug line = 188:49]
  store i64 %51, i64* %idx_3, align 8, !dbg !7728 ; [debug line = 188:49]
  br label %4, !dbg !7728                         ; [debug line = 188:49]

; <label>:52                                      ; preds = %4
  ret void, !dbg !7729                            ; [debug line = 199:9]
}

; [#uses=1]
define linkonce_odr void @_ZN13PackedStencilIjLm1ELm1ELm1ELm1EEcv16AxiPackedStencilIjLm1ELm1ELm1ELm1EEEv(%struct.AxiPackedStencil* noalias sret %agg.result, %struct.PackedStencil.8* %this) nounwind uwtable align 2 {
  %1 = alloca %struct.PackedStencil.8*, align 8   ; [#uses=2 type=%struct.PackedStencil.8**]
  store %struct.PackedStencil.8* %this, %struct.PackedStencil.8** %1, align 8
  call void @llvm.dbg.declare(metadata !{%struct.PackedStencil.8** %1}, metadata !7730), !dbg !7732 ; [debug line = 129:5] [debug variable = this]
  %2 = load %struct.PackedStencil.8** %1          ; [#uses=1 type=%struct.PackedStencil.8*]
  call void (...)* @_ssdm_InlineSelf(i32 0, i8* getelementptr inbounds ([1 x i8]* @.str, i32 0, i32 0)) nounwind, !dbg !7733 ; [debug line = 130:1]
  call void @llvm.dbg.declare(metadata !{%struct.AxiPackedStencil* %agg.result}, metadata !7735), !dbg !7736 ; [debug line = 131:62] [debug variable = res]
  call void @_ZN16AxiPackedStencilIjLm1ELm1ELm1ELm1EEC1Ev(%struct.AxiPackedStencil* %agg.result), !dbg !7737 ; [debug line = 131:65]
  %3 = getelementptr inbounds %struct.AxiPackedStencil* %agg.result, i32 0, i32 0, !dbg !7738 ; [#uses=1 type=%struct.ap_uint*] [debug line = 132:9]
  %4 = getelementptr inbounds %struct.PackedStencil.8* %2, i32 0, i32 0, !dbg !7738 ; [#uses=1 type=%struct.ap_uint*] [debug line = 132:9]
  %5 = call %struct.ap_uint* @_ZN7ap_uintILi32EEaSERKS0_(%struct.ap_uint* %3, %struct.ap_uint* %4), !dbg !7738 ; [#uses=0 type=%struct.ap_uint*] [debug line = 132:9]
  ret void, !dbg !7739                            ; [debug line = 133:9]
}

; [#uses=2]
define linkonce_odr void @_ZN16AxiPackedStencilIjLm1ELm1ELm1ELm1EEC1Ev(%struct.AxiPackedStencil* %this) unnamed_addr nounwind uwtable inlinehint align 2 {
  %1 = alloca %struct.AxiPackedStencil*, align 8  ; [#uses=2 type=%struct.AxiPackedStencil**]
  store %struct.AxiPackedStencil* %this, %struct.AxiPackedStencil** %1, align 8
  call void @llvm.dbg.declare(metadata !{%struct.AxiPackedStencil** %1}, metadata !7740), !dbg !7742 ; [debug line = 139:8] [debug variable = this]
  %2 = load %struct.AxiPackedStencil** %1         ; [#uses=1 type=%struct.AxiPackedStencil*]
  call void @_ZN16AxiPackedStencilIjLm1ELm1ELm1ELm1EEC2Ev(%struct.AxiPackedStencil* %2), !dbg !7742 ; [debug line = 139:8]
  ret void, !dbg !7742                            ; [debug line = 139:8]
}

; [#uses=4]
define linkonce_odr %struct.ap_uint* @_ZN7ap_uintILi32EEaSERKS0_(%struct.ap_uint* %this, %struct.ap_uint* %op2) nounwind uwtable inlinehint alwaysinline align 2 {
  %1 = alloca %struct.ap_uint*, align 8           ; [#uses=2 type=%struct.ap_uint**]
  %2 = alloca %struct.ap_uint*, align 8           ; [#uses=2 type=%struct.ap_uint**]
  store %struct.ap_uint* %this, %struct.ap_uint** %1, align 8
  call void @llvm.dbg.declare(metadata !{%struct.ap_uint** %1}, metadata !7743), !dbg !7745 ; [debug line = 279:53] [debug variable = this]
  store %struct.ap_uint* %op2, %struct.ap_uint** %2, align 8
  call void @llvm.dbg.declare(metadata !{%struct.ap_uint** %2}, metadata !7746), !dbg !7747 ; [debug line = 279:87] [debug variable = op2]
  %3 = load %struct.ap_uint** %1                  ; [#uses=2 type=%struct.ap_uint*]
  %4 = load %struct.ap_uint** %2, align 8, !dbg !7748 ; [#uses=1 type=%struct.ap_uint*] [debug line = 280:10]
  %5 = bitcast %struct.ap_uint* %4 to %struct.ssdm_int*, !dbg !7748 ; [#uses=1 type=%struct.ssdm_int*] [debug line = 280:10]
  %6 = getelementptr inbounds %struct.ssdm_int* %5, i32 0, i32 0, !dbg !7748 ; [#uses=1 type=i32*] [debug line = 280:10]
  %7 = load i32* %6, align 4, !dbg !7748          ; [#uses=1 type=i32] [debug line = 280:10]
  %8 = bitcast %struct.ap_uint* %3 to %struct.ap_int_base*, !dbg !7748 ; [#uses=1 type=%struct.ap_int_base*] [debug line = 280:10]
  %9 = bitcast %struct.ap_int_base* %8 to %struct.ssdm_int*, !dbg !7748 ; [#uses=1 type=%struct.ssdm_int*] [debug line = 280:10]
  %10 = getelementptr inbounds %struct.ssdm_int* %9, i32 0, i32 0, !dbg !7748 ; [#uses=1 type=i32*] [debug line = 280:10]
  store i32 %7, i32* %10, align 4, !dbg !7748     ; [debug line = 280:10]
  ret %struct.ap_uint* %3, !dbg !7750             ; [debug line = 281:10]
}

; [#uses=1]
define linkonce_odr void @_ZN16AxiPackedStencilIjLm1ELm1ELm1ELm1EEC2Ev(%struct.AxiPackedStencil* %this) unnamed_addr nounwind uwtable inlinehint align 2 {
  %1 = alloca %struct.AxiPackedStencil*, align 8  ; [#uses=2 type=%struct.AxiPackedStencil**]
  store %struct.AxiPackedStencil* %this, %struct.AxiPackedStencil** %1, align 8
  call void @llvm.dbg.declare(metadata !{%struct.AxiPackedStencil** %1}, metadata !7751), !dbg !7752 ; [debug line = 139:8] [debug variable = this]
  %2 = load %struct.AxiPackedStencil** %1         ; [#uses=2 type=%struct.AxiPackedStencil*]
  %3 = getelementptr inbounds %struct.AxiPackedStencil* %2, i32 0, i32 0, !dbg !7752 ; [#uses=1 type=%struct.ap_uint*] [debug line = 139:8]
  call void @_ZN7ap_uintILi32EEC1Ev(%struct.ap_uint* %3), !dbg !7752 ; [debug line = 139:8]
  %4 = getelementptr inbounds %struct.AxiPackedStencil* %2, i32 0, i32 1, !dbg !7752 ; [#uses=1 type=%struct.ap_uint.0*] [debug line = 139:8]
  call void @_ZN7ap_uintILi1EEC1Ev(%struct.ap_uint.0* %4), !dbg !7752 ; [debug line = 139:8]
  ret void, !dbg !7753                            ; [debug line = 139:8]
}

; [#uses=3]
define linkonce_odr void @_ZN7ap_uintILi32EEC1Ev(%struct.ap_uint* %this) unnamed_addr nounwind uwtable inlinehint alwaysinline align 2 {
  %1 = alloca %struct.ap_uint*, align 8           ; [#uses=2 type=%struct.ap_uint**]
  store %struct.ap_uint* %this, %struct.ap_uint** %1, align 8
  call void @llvm.dbg.declare(metadata !{%struct.ap_uint** %1}, metadata !7755), !dbg !7756 ; [debug line = 185:43] [debug variable = this]
  %2 = load %struct.ap_uint** %1                  ; [#uses=1 type=%struct.ap_uint*]
  call void @_ZN7ap_uintILi32EEC2Ev(%struct.ap_uint* %2), !dbg !7757 ; [debug line = 185:62]
  ret void, !dbg !7757                            ; [debug line = 185:62]
}

; [#uses=1]
define linkonce_odr void @_ZN7ap_uintILi1EEC1Ev(%struct.ap_uint.0* %this) unnamed_addr nounwind uwtable inlinehint alwaysinline align 2 {
  %1 = alloca %struct.ap_uint.0*, align 8         ; [#uses=2 type=%struct.ap_uint.0**]
  store %struct.ap_uint.0* %this, %struct.ap_uint.0** %1, align 8
  call void @llvm.dbg.declare(metadata !{%struct.ap_uint.0** %1}, metadata !7758), !dbg !7759 ; [debug line = 185:43] [debug variable = this]
  %2 = load %struct.ap_uint.0** %1                ; [#uses=1 type=%struct.ap_uint.0*]
  call void @_ZN7ap_uintILi1EEC2Ev(%struct.ap_uint.0* %2), !dbg !7760 ; [debug line = 185:62]
  ret void, !dbg !7760                            ; [debug line = 185:62]
}

; [#uses=1]
define linkonce_odr void @_ZN7ap_uintILi1EEC2Ev(%struct.ap_uint.0* %this) unnamed_addr nounwind uwtable inlinehint alwaysinline align 2 {
  %1 = alloca %struct.ap_uint.0*, align 8         ; [#uses=2 type=%struct.ap_uint.0**]
  store %struct.ap_uint.0* %this, %struct.ap_uint.0** %1, align 8
  call void @llvm.dbg.declare(metadata !{%struct.ap_uint.0** %1}, metadata !7761), !dbg !7762 ; [debug line = 185:43] [debug variable = this]
  %2 = load %struct.ap_uint.0** %1                ; [#uses=1 type=%struct.ap_uint.0*]
  %3 = bitcast %struct.ap_uint.0* %2 to %struct.ap_int_base.1*, !dbg !7763 ; [#uses=1 type=%struct.ap_int_base.1*] [debug line = 185:61]
  call void @_ZN11ap_int_baseILi1ELb0ELb1EEC2Ev(%struct.ap_int_base.1* %3), !dbg !7763 ; [debug line = 185:61]
  ret void, !dbg !7764                            ; [debug line = 185:62]
}

; [#uses=1]
define linkonce_odr void @_ZN7ap_uintILi32EEC2Ev(%struct.ap_uint* %this) unnamed_addr nounwind uwtable inlinehint alwaysinline align 2 {
  %1 = alloca %struct.ap_uint*, align 8           ; [#uses=2 type=%struct.ap_uint**]
  store %struct.ap_uint* %this, %struct.ap_uint** %1, align 8
  call void @llvm.dbg.declare(metadata !{%struct.ap_uint** %1}, metadata !7766), !dbg !7767 ; [debug line = 185:43] [debug variable = this]
  %2 = load %struct.ap_uint** %1                  ; [#uses=1 type=%struct.ap_uint*]
  %3 = bitcast %struct.ap_uint* %2 to %struct.ap_int_base*, !dbg !7768 ; [#uses=1 type=%struct.ap_int_base*] [debug line = 185:61]
  call void @_ZN11ap_int_baseILi32ELb0ELb1EEC2Ev(%struct.ap_int_base* %3), !dbg !7768 ; [debug line = 185:61]
  ret void, !dbg !7769                            ; [debug line = 185:62]
}

; [#uses=4]
define linkonce_odr void @_ZN11ap_int_baseILi32ELb0ELb1EEC2Ev(%struct.ap_int_base* %this) unnamed_addr nounwind uwtable inlinehint alwaysinline align 2 {
  %1 = alloca %struct.ap_int_base*, align 8       ; [#uses=2 type=%struct.ap_int_base**]
  store %struct.ap_int_base* %this, %struct.ap_int_base** %1, align 8
  call void @llvm.dbg.declare(metadata !{%struct.ap_int_base** %1}, metadata !7771), !dbg !7772 ; [debug line = 1439:42] [debug variable = this]
  %2 = load %struct.ap_int_base** %1              ; [#uses=1 type=%struct.ap_int_base*]
  %3 = bitcast %struct.ap_int_base* %2 to %struct.ssdm_int*, !dbg !7773 ; [#uses=1 type=%struct.ssdm_int*] [debug line = 1439:56]
  call void @_ZN8ssdm_intILi32ELb0EEC2Ev(%struct.ssdm_int* %3), !dbg !7773 ; [debug line = 1439:56]
  ret void, !dbg !7774                            ; [debug line = 1445:4]
}

; [#uses=4]
define linkonce_odr void @_ZN8ssdm_intILi32ELb0EEC2Ev(%struct.ssdm_int* %this) unnamed_addr nounwind uwtable inlinehint alwaysinline align 2 {
  %1 = alloca %struct.ssdm_int*, align 8          ; [#uses=2 type=%struct.ssdm_int**]
  store %struct.ssdm_int* %this, %struct.ssdm_int** %1, align 8
  call void @llvm.dbg.declare(metadata !{%struct.ssdm_int** %1}, metadata !7776), !dbg !7778 ; [debug line = 34:0] [debug variable = this]
  %2 = load %struct.ssdm_int** %1                 ; [#uses=0 type=%struct.ssdm_int*]
  ret void, !dbg !7779                            ; [debug line = 34:0]
}

; [#uses=5]
define linkonce_odr void @_ZN13PackedStencilIjLm1ELm1ELm1ELm1EEC1Ev(%struct.PackedStencil.8* %this) unnamed_addr nounwind uwtable inlinehint align 2 {
  %1 = alloca %struct.PackedStencil.8*, align 8   ; [#uses=2 type=%struct.PackedStencil.8**]
  store %struct.PackedStencil.8* %this, %struct.PackedStencil.8** %1, align 8
  call void @llvm.dbg.declare(metadata !{%struct.PackedStencil.8** %1}, metadata !7781), !dbg !7782 ; [debug line = 75:8] [debug variable = this]
  %2 = load %struct.PackedStencil.8** %1          ; [#uses=1 type=%struct.PackedStencil.8*]
  call void @_ZN13PackedStencilIjLm1ELm1ELm1ELm1EEC2Ev(%struct.PackedStencil.8* %2), !dbg !7782 ; [debug line = 75:8]
  ret void, !dbg !7782                            ; [debug line = 75:8]
}

; [#uses=20]
declare void @_ssdm_Unroll(...) nounwind

; [#uses=1]
define linkonce_odr void @_ZN7ap_uintILi32EEC1Ej(%struct.ap_uint* %this, i32 %val) unnamed_addr nounwind uwtable inlinehint alwaysinline align 2 {
  %1 = alloca %struct.ap_uint*, align 8           ; [#uses=2 type=%struct.ap_uint**]
  %2 = alloca i32, align 4                        ; [#uses=2 type=i32*]
  store %struct.ap_uint* %this, %struct.ap_uint** %1, align 8
  call void @llvm.dbg.declare(metadata !{%struct.ap_uint** %1}, metadata !7783), !dbg !7784 ; [debug line = 253:43] [debug variable = this]
  store i32 %val, i32* %2, align 4
  call void @llvm.dbg.declare(metadata !{i32* %2}, metadata !7785), !dbg !7786 ; [debug line = 253:64] [debug variable = val]
  %3 = load %struct.ap_uint** %1                  ; [#uses=1 type=%struct.ap_uint*]
  %4 = load i32* %2, align 4, !dbg !7787          ; [#uses=1 type=i32] [debug line = 253:86]
  call void @_ZN7ap_uintILi32EEC2Ej(%struct.ap_uint* %3, i32 %4), !dbg !7787 ; [debug line = 253:86]
  ret void, !dbg !7787                            ; [debug line = 253:86]
}

; [#uses=1]
define linkonce_odr i32 @_Z15bitcast_to_uintIjET_S0_(i32 %in) nounwind uwtable inlinehint {
  %1 = alloca i32, align 4                        ; [#uses=2 type=i32*]
  store i32 %in, i32* %1, align 4
  call void @llvm.dbg.declare(metadata !{i32* %1}, metadata !7788), !dbg !7789 ; [debug line = 34:28] [debug variable = in]
  call void (...)* @_ssdm_InlineSelf(i32 0, i8* getelementptr inbounds ([1 x i8]* @.str, i32 0, i32 0)) nounwind, !dbg !7790 ; [debug line = 35:1]
  %2 = load i32* %1, align 4, !dbg !7792          ; [#uses=1 type=i32] [debug line = 36:2]
  ret i32 %2, !dbg !7792                          ; [debug line = 36:2]
}

; [#uses=3]
define linkonce_odr void @_ZN13PackedStencilIjLm1ELm1ELm1ELm1EEclEmmmm(%struct.ap_range_ref* noalias sret %agg.result, %struct.PackedStencil.8* %this, i64 %index_0, i64 %index_1, i64 %index_2, i64 %index_3) nounwind uwtable inlinehint align 2 {
  %1 = alloca %struct.PackedStencil.8*, align 8   ; [#uses=2 type=%struct.PackedStencil.8**]
  %2 = alloca i64, align 8                        ; [#uses=3 type=i64*]
  %3 = alloca i64, align 8                        ; [#uses=3 type=i64*]
  %4 = alloca i64, align 8                        ; [#uses=3 type=i64*]
  %5 = alloca i64, align 8                        ; [#uses=3 type=i64*]
  %word_length = alloca i64, align 8              ; [#uses=1 type=i64*]
  %lo = alloca i64, align 8                       ; [#uses=3 type=i64*]
  %hi = alloca i64, align 8                       ; [#uses=2 type=i64*]
  store %struct.PackedStencil.8* %this, %struct.PackedStencil.8** %1, align 8
  call void @llvm.dbg.declare(metadata !{%struct.PackedStencil.8** %1}, metadata !7793), !dbg !7794 ; [debug line = 81:5] [debug variable = this]
  store i64 %index_0, i64* %2, align 8
  call void @llvm.dbg.declare(metadata !{i64* %2}, metadata !7795), !dbg !7796 ; [debug line = 81:23] [debug variable = index_0]
  store i64 %index_1, i64* %3, align 8
  call void @llvm.dbg.declare(metadata !{i64* %3}, metadata !7797), !dbg !7798 ; [debug line = 81:39] [debug variable = index_1]
  store i64 %index_2, i64* %4, align 8
  call void @llvm.dbg.declare(metadata !{i64* %4}, metadata !7799), !dbg !7800 ; [debug line = 81:59] [debug variable = index_2]
  store i64 %index_3, i64* %5, align 8
  call void @llvm.dbg.declare(metadata !{i64* %5}, metadata !7801), !dbg !7802 ; [debug line = 81:79] [debug variable = index_3]
  %6 = load %struct.PackedStencil.8** %1          ; [#uses=1 type=%struct.PackedStencil.8*]
  call void (...)* @_ssdm_InlineSelf(i32 0, i8* getelementptr inbounds ([1 x i8]* @.str, i32 0, i32 0)) nounwind, !dbg !7803 ; [debug line = 82:1]
  %7 = load i64* %2, align 8, !dbg !7805          ; [#uses=1 type=i64] [debug line = 83:2]
  %8 = icmp ult i64 %7, 1, !dbg !7805             ; [#uses=1 type=i1] [debug line = 83:2]
  br i1 %8, label %9, label %18, !dbg !7805       ; [debug line = 83:2]

; <label>:9                                       ; preds = %0
  %10 = load i64* %3, align 8, !dbg !7805         ; [#uses=1 type=i64] [debug line = 83:2]
  %11 = icmp ult i64 %10, 1, !dbg !7805           ; [#uses=1 type=i1] [debug line = 83:2]
  br i1 %11, label %12, label %18, !dbg !7805     ; [debug line = 83:2]

; <label>:12                                      ; preds = %9
  %13 = load i64* %4, align 8, !dbg !7805         ; [#uses=1 type=i64] [debug line = 83:2]
  %14 = icmp ult i64 %13, 1, !dbg !7805           ; [#uses=1 type=i1] [debug line = 83:2]
  br i1 %14, label %15, label %18, !dbg !7805     ; [debug line = 83:2]

; <label>:15                                      ; preds = %12
  %16 = load i64* %5, align 8, !dbg !7805         ; [#uses=1 type=i64] [debug line = 83:2]
  %17 = icmp ult i64 %16, 1, !dbg !7805           ; [#uses=1 type=i1] [debug line = 83:2]
  br label %18

; <label>:18                                      ; preds = %15, %12, %9, %0
  %19 = phi i1 [ false, %12 ], [ false, %9 ], [ false, %0 ], [ %17, %15 ] ; [#uses=1 type=i1]
  br i1 %19, label %20, label %21

; <label>:20                                      ; preds = %18
  br label %23

; <label>:21                                      ; preds = %18
  call void @__assert_fail(i8* getelementptr inbounds ([85 x i8]* @.str11, i32 0, i32 0), i8* getelementptr inbounds ([29 x i8]* @.str12, i32 0, i32 0), i32 83, i8* getelementptr inbounds ([238 x i8]* @__PRETTY_FUNCTION__._ZN13PackedStencilIjLm1ELm1ELm1ELm1EEclEmmmm, i32 0, i32 0)) noreturn nounwind, !dbg !7806 ; [debug line = 83:122]
  unreachable, !dbg !7806                         ; [debug line = 83:122]
                                                  ; No predecessors!
  br label %23, !dbg !7806                        ; [debug line = 83:122]

; <label>:23                                      ; preds = %22, %20
  call void @llvm.dbg.declare(metadata !{i64* %word_length}, metadata !7807), !dbg !7808 ; [debug line = 84:22] [debug variable = word_length]
  store i64 32, i64* %word_length, align 8, !dbg !7809 ; [debug line = 84:49]
  call void @llvm.dbg.declare(metadata !{i64* %lo}, metadata !7810), !dbg !7811 ; [debug line = 85:22] [debug variable = lo]
  %24 = load i64* %2, align 8, !dbg !7812         ; [#uses=1 type=i64] [debug line = 88:81]
  %25 = mul i64 %24, 32, !dbg !7812               ; [#uses=1 type=i64] [debug line = 88:81]
  %26 = load i64* %3, align 8, !dbg !7812         ; [#uses=1 type=i64] [debug line = 88:81]
  %27 = mul i64 %26, 1, !dbg !7812                ; [#uses=1 type=i64] [debug line = 88:81]
  %28 = mul i64 %27, 32, !dbg !7812               ; [#uses=1 type=i64] [debug line = 88:81]
  %29 = add i64 %25, %28, !dbg !7812              ; [#uses=1 type=i64] [debug line = 88:81]
  %30 = load i64* %4, align 8, !dbg !7812         ; [#uses=1 type=i64] [debug line = 88:81]
  %31 = mul i64 %30, 1, !dbg !7812                ; [#uses=1 type=i64] [debug line = 88:81]
  %32 = mul i64 %31, 1, !dbg !7812                ; [#uses=1 type=i64] [debug line = 88:81]
  %33 = mul i64 %32, 32, !dbg !7812               ; [#uses=1 type=i64] [debug line = 88:81]
  %34 = add i64 %29, %33, !dbg !7812              ; [#uses=1 type=i64] [debug line = 88:81]
  %35 = load i64* %5, align 8, !dbg !7812         ; [#uses=1 type=i64] [debug line = 88:81]
  %36 = mul i64 %35, 1, !dbg !7812                ; [#uses=1 type=i64] [debug line = 88:81]
  %37 = mul i64 %36, 1, !dbg !7812                ; [#uses=1 type=i64] [debug line = 88:81]
  %38 = mul i64 %37, 1, !dbg !7812                ; [#uses=1 type=i64] [debug line = 88:81]
  %39 = mul i64 %38, 32, !dbg !7812               ; [#uses=1 type=i64] [debug line = 88:81]
  %40 = add i64 %34, %39, !dbg !7812              ; [#uses=1 type=i64] [debug line = 88:81]
  store i64 %40, i64* %lo, align 8, !dbg !7812    ; [debug line = 88:81]
  call void @llvm.dbg.declare(metadata !{i64* %hi}, metadata !7813), !dbg !7814 ; [debug line = 89:22] [debug variable = hi]
  %41 = load i64* %lo, align 8, !dbg !7815        ; [#uses=1 type=i64] [debug line = 89:47]
  %42 = add i64 %41, 32, !dbg !7815               ; [#uses=1 type=i64] [debug line = 89:47]
  %43 = sub i64 %42, 1, !dbg !7815                ; [#uses=1 type=i64] [debug line = 89:47]
  store i64 %43, i64* %hi, align 8, !dbg !7815    ; [debug line = 89:47]
  %44 = getelementptr inbounds %struct.PackedStencil.8* %6, i32 0, i32 0, !dbg !7816 ; [#uses=1 type=%struct.ap_uint*] [debug line = 90:16]
  %45 = bitcast %struct.ap_uint* %44 to %struct.ap_int_base*, !dbg !7816 ; [#uses=1 type=%struct.ap_int_base*] [debug line = 90:16]
  %46 = load i64* %hi, align 8, !dbg !7816        ; [#uses=1 type=i64] [debug line = 90:16]
  %47 = trunc i64 %46 to i32, !dbg !7816          ; [#uses=1 type=i32] [debug line = 90:16]
  %48 = load i64* %lo, align 8, !dbg !7816        ; [#uses=1 type=i64] [debug line = 90:16]
  %49 = trunc i64 %48 to i32, !dbg !7816          ; [#uses=1 type=i32] [debug line = 90:16]
  call void @_ZN11ap_int_baseILi32ELb0ELb1EE5rangeEii(%struct.ap_range_ref* sret %agg.result, %struct.ap_int_base* %45, i32 %47, i32 %49), !dbg !7816 ; [debug line = 90:16]
  ret void, !dbg !7816                            ; [debug line = 90:16]
}

; [#uses=2]
define linkonce_odr %struct.ap_range_ref* @_ZN12ap_range_refILi32ELb0EEaSILi32ELb0EEERS0_RK11ap_int_baseIXT_EXT0_EXleT_Li64EEE(%struct.ap_range_ref* %this, %struct.ap_int_base* %val) nounwind uwtable inlinehint alwaysinline align 2 {
  %1 = alloca %struct.ap_range_ref*, align 8      ; [#uses=2 type=%struct.ap_range_ref**]
  %2 = alloca %struct.ap_int_base*, align 8       ; [#uses=2 type=%struct.ap_int_base**]
  %loc = alloca %struct.ap_int_base, align 4      ; [#uses=3 type=%struct.ap_int_base*]
  %__Result__ = alloca i32, align 4               ; [#uses=4 type=i32*]
  %__Val2__ = alloca i32, align 4                 ; [#uses=3 type=i32*]
  %__Repl2__ = alloca i32, align 4                ; [#uses=3 type=i32*]
  store %struct.ap_range_ref* %this, %struct.ap_range_ref** %1, align 8
  call void @llvm.dbg.declare(metadata !{%struct.ap_range_ref** %1}, metadata !7817), !dbg !7819 ; [debug line = 955:57] [debug variable = this]
  store %struct.ap_int_base* %val, %struct.ap_int_base** %2, align 8
  call void @llvm.dbg.declare(metadata !{%struct.ap_int_base** %2}, metadata !7820), !dbg !7821 ; [debug line = 955:103] [debug variable = val]
  %3 = load %struct.ap_range_ref** %1             ; [#uses=5 type=%struct.ap_range_ref*]
  call void @llvm.dbg.declare(metadata !{%struct.ap_int_base* %loc}, metadata !7822), !dbg !7824 ; [debug line = 956:35] [debug variable = loc]
  %4 = load %struct.ap_int_base** %2, align 8, !dbg !7825 ; [#uses=2 type=%struct.ap_int_base*] [debug line = 956:43]
  %5 = bitcast %struct.ap_int_base* %loc to i8*, !dbg !7825 ; [#uses=0 type=i8*] [debug line = 956:43]
  %6 = bitcast %struct.ap_int_base* %4 to i8*, !dbg !7825 ; [#uses=0 type=i8*] [debug line = 956:43]
  %7 = getelementptr inbounds %struct.ap_int_base* %loc, i32 0, i32 0, !dbg !7825 ; [#uses=1 type=%struct.ssdm_int*] [debug line = 956:43]
  %8 = getelementptr inbounds %struct.ap_int_base* %4, i32 0, i32 0, !dbg !7825 ; [#uses=1 type=%struct.ssdm_int*] [debug line = 956:43]
  %9 = getelementptr inbounds %struct.ssdm_int* %7, i32 0, i32 0, !dbg !7825 ; [#uses=1 type=i32*] [debug line = 956:43]
  %10 = getelementptr inbounds %struct.ssdm_int* %8, i32 0, i32 0, !dbg !7825 ; [#uses=1 type=i32*] [debug line = 956:43]
